                            * = $C000
C000   BE 44 41             LDX $4144,Y
C003   56 49                LSR $49,X
C005   44 20                NOP $20
C007   47 20                SRE $20
C009   53 49                SRE ($49),Y
C00B   52                   JAM
C00C   41 43                EOR ($43,X)
C00E   55 53                EOR $53,X
C010   41 20                EOR ($20,X)
C012   43 42                SRE ($42,X)
C014   4D 20 43             EOR $4320
C017   4F 50 59             SRE $5950
C01A   52                   JAM
C01B   49 47                EOR #$47
C01D   48                   PHA
C01E   54 20                NOP $20,X
C020   38                   SEC
C021   34 AD                NOP $AD,X
C023   00                   BRK
C024   40                   RTI
C025   CD 00 40             CMP $4000
C028   F0 03                BEQ LC02D
C02A   4C BD EA             JMP LEABD
C02D   29 0F      LC02D     AND #$0F
C02F   0A                   ASL A
C030   A8                   TAY
C031   B9 46 C0             LDA $C046,Y
C034   85 6E                STA $6E
C036   B9 47 C0             LDA $C047,Y
C039   85 6F                STA $6F
C03B   AD 02 40             LDA $4002
C03E   29 F7                AND #$F7
C040   8D 02 40             STA $4002
C043   6C 6E 00             JMP ($006E)
C046   66 C0                ROR $C0
C048   71 C0                ADC ($C0),Y
C04A   D6 C0                DEC $C0,X
C04C   F6 C0                INC $C0,X
C04E   4E C1 66             LSR $66C1
C051   C0 66                CPY #$66
C053   C0 66                CPY #$66
C055   C0 66                CPY #$66
C057   C0 66                CPY #$66
C059   C0 66                CPY #$66
C05B   C0 66                CPY #$66
C05D   C0 66                CPY #$66
C05F   C0 66                CPY #$66
C061   C0 66                CPY #$66
C063   C0 66                CPY #$66
C065   C0 AD                CPY #$AD
C067   02                   JAM
C068   40                   RTI
C069   09 08                ORA #$08
C06B   8D 02 40             STA $4002
C06E   4C BD EA             JMP LEABD
C071   AD 02 40   LC071     LDA $4002
C074   30 FB                BMI LC071
C076   AD 00 40             LDA $4000
C079   48                   PHA
C07A   A5 58                LDA $58
C07C   10 0D                BPL LC08B
C07E   A9 00                LDA #$00
C080   85 95                STA $95
C082   A5 59                LDA $59
C084   20 F6 C0             JSR LC0F6
C087   A9 00                LDA #$00
C089   85 58                STA $58
C08B   68         LC08B     PLA
C08C   BA                   TSX
C08D   86 5A                STX $5A
C08F   A2 00                LDX #$00
C091   85 8F                STA $8F
C093   A8                   TAY
C094   29 60                AND #$60
C096   C9 40                CMP #$40
C098   F0 0E                BEQ LC0A8
C09A   C9 20                CMP #$20
C09C   F0 22                BEQ LC0C0
C09E   A0 00                LDY #$00
C0A0   A2 03                LDX #$03
C0A2   86 6E                STX $6E
C0A4   78                   SEI
C0A5   4C 84 E9             JMP LE984
C0A8   86 5B      LC0A8     STX $5B
C0AA   98                   TYA
C0AB   C9 5F                CMP #$5F
C0AD   F0 0D                BEQ LC0BC
C0AF   85 5B                STA $5B
C0B1   86 5C                STX $5C
C0B3   A9 20      LC0B3     LDA #$20
C0B5   85 7C                STA $7C
C0B7   85 7D                STA $7D
C0B9   4C 33 C1             JMP LC133
C0BC   A9 00      LC0BC     LDA #$00
C0BE   F0 75                BEQ LC135
C0C0   98         LC0C0     TYA
C0C1   C9 3F                CMP #$3F
C0C3   D0 0A                BNE LC0CF
C0C5   A9 FF                LDA #$FF
C0C7   85 95                STA $95
C0C9   A2 00                LDX #$00
C0CB   86 5C                STX $5C
C0CD   F0 ED                BEQ LC0BC
C0CF   85 5C      LC0CF     STA $5C
C0D1   86 5B                STX $5B
C0D3   4C B3 C0             JMP LC0B3
C0D6   AD 02 40   LC0D6     LDA $4002
C0D9   30 FB                BMI LC0D6
C0DB   BA                   TSX
C0DC   86 5A                STX $5A
C0DE   AD 00 40             LDA $4000
C0E1   85 7D                STA $7D
C0E3   A8                   TAY
C0E4   29 0F                AND #$0F
C0E6   85 7C                STA $7C
C0E8   98                   TYA
C0E9   29 F0                AND #$F0
C0EB   C9 E0                CMP #$E0
C0ED   D0 03                BNE LC0F2
C0EF   20 F7 DB             JSR LDBF7
C0F2   A9 00      LC0F2     LDA #$00
C0F4   F0 3F                BEQ LC135
C0F6   AD 02 40   LC0F6     LDA $4002
C0F9   30 FB                BMI LC0F6
C0FB   BA                   TSX
C0FC   86 5A                STX $5A
C0FE   AD 00 40             LDA $4000
C101   48                   PHA
C102   A5 58                LDA $58
C104   10 24                BPL LC12A
C106   A5 59                LDA $59
C108   85 7E                STA $7E
C10A   20 17 D2             JSR LD217
C10D   B0 05                BCS LC114
C10F   B5 F3                LDA $F3,X
C111   6A                   ROR A
C112   B0 13                BCS LC127
C114   A5 7D      LC114     LDA $7D
C116   29 F0                AND #$F0
C118   C9 F0                CMP #$F0
C11A   F0 0B                BEQ LC127
C11C   A5 7C                LDA $7C
C11E   C9 01                CMP #$01
C120   F0 0E                BEQ LC130
C122   68                   PLA
C123   A9 02                LDA #$02
C125   D0 0E                BNE LC135
C127   20 D3 D0   LC127     JSR LD0D3
C12A   A5 58      LC12A     LDA $58
C12C   09 80                ORA #$80
C12E   85 58                STA $58
C130   68         LC130     PLA
C131   85 59                STA $59
C133   A9 00      LC133     LDA #$00
C135   29 03      LC135     AND #$03
C137   09 08                ORA #$08
C139   85 97                STA $97
C13B   AD 02 40             LDA $4002
C13E   05 97                ORA $97
C140   8D 02 40             STA $4002
C143   AD 02 40   LC143     LDA $4002
C146   10 FB                BPL LC143
C148   29 FC                AND #$FC
C14A   8D 02 40             STA $4002
C14D   60                   RTS
C14E   AD 02 40   LC14E     LDA $4002
C151   30 FB                BMI LC14E
C153   A9 FF                LDA #$FF
C155   8D 03 40             STA $4003
C158   BA                   TSX
C159   86 5A                STX $5A
C15B   A5 7C                LDA $7C
C15D   C9 13                CMP #$13
C15F   90 02                BCC LC163
C161   29 0F                AND #$0F
C163   C9 0F      LC163     CMP #$0F
C165   D0 02                BNE LC169
C167   A9 10                LDA #$10
C169   AA         LC169     TAX
C16A   38                   SEC
C16B   BD 2B 02             LDA $022B,X
C16E   30 06                BMI LC176
C170   29 0F                AND #$0F
C172   85 7B                STA $7B
C174   AA                   TAX
C175   18                   CLC
C176   B0 06      LC176     BCS LC17E
C178   A6 7B                LDX $7B
C17A   B5 F3                LDA $F3,X
C17C   30 0B                BMI LC189
C17E   A9 0D      LC17E     LDA #$0D
C180   8D 00 40             STA $4000
C183   A9 0A                LDA #$0A
C185   85 97                STA $97
C187   D0 1E                BNE LC1A7
C189   BD 3E 02   LC189     LDA $023E,X
C18C   8D 00 40             STA $4000
C18F   B5 F3                LDA $F3,X
C191   29 08                AND #$08
C193   49 08                EOR #$08
C195   0A                   ASL A
C196   0A                   ASL A
C197   0A                   ASL A
C198   48                   PHA
C199   20 F9 D4             JSR LD4F9
C19C   68                   PLA
C19D   C9 40                CMP #$40
C19F   D0 02                BNE LC1A3
C1A1   A9 03                LDA #$03
C1A3   09 08      LC1A3     ORA #$08
C1A5   85 97                STA $97
C1A7   AD 02 40   LC1A7     LDA $4002
C1AA   29 FC                AND #$FC
C1AC   05 97                ORA $97
C1AE   8D 02 40             STA $4002
C1B1   AD 02 40   LC1B1     LDA $4002
C1B4   10 FB                BPL LC1B1
C1B6   A2 00                LDX #$00
C1B8   8E 03 40             STX $4003
C1BB   29 F7                AND #$F7
C1BD   8D 02 40             STA $4002
C1C0   AD 02 40   LC1C0     LDA $4002
C1C3   30 FB                BMI LC1C0
C1C5   09 08                ORA #$08
C1C7   29 FC                AND #$FC
C1C9   8D 02 40             STA $4002
C1CC   60                   RTS
C1CD   A2 0D      LC1CD     LDX #$0D
C1CF   8E 00 40             STX $4000
C1D2   A9 0A                LDA #$0A
C1D4   85 97                STA $97
C1D6   D0 CF                BNE LC1A7
C1D8   A9 01      LC1D8     LDA #$01
C1DA   4C 35 C1             JMP LC135
C1DD   AE 74 02             LDX $0274
C1E0   CA                   DEX
C1E1   F0 18                BEQ LC1FB
C1E3   AD 01 02             LDA $0201
C1E6   A8                   TAY
C1E7   C9 52                CMP #$52
C1E9   F0 35                BEQ LC220
C1EB   C9 53                CMP #$53
C1ED   F0 31                BEQ LC220
C1EF   C9 39                CMP #$39
C1F1   F0 15                BEQ LC208
C1F3   C9 38                CMP #$38
C1F5   D0 0C                BNE LC203
C1F7   A2 08      LC1F7     LDX #$08
C1F9   D0 0F                BNE LC20A
C1FB   A5 66      LC1FB     LDA $66
C1FD   C9 08                CMP #$08
C1FF   F0 07                BEQ LC208
C201   D0 F4                BNE LC1F7
C203   A9 31      LC203     LDA #$31
C205   4C B2 C2             JMP LC2B2
C208   A2 09      LC208     LDX #$09
C20A   86 66      LC20A     STX $66
C20C   8A                   TXA
C20D   0A         LC20D     ASL A
C20E   0A                   ASL A
C20F   29 04                AND #$04
C211   49 04                EOR #$04
C213   85 97                STA $97
C215   AD 02 40             LDA $4002
C218   29 FB                AND #$FB
C21A   05 97                ORA $97
C21C   8D 02 40             STA $4002
C21F   60                   RTS
C220   CA         LC220     DEX
C221   F0 E0                BEQ LC203
C223   A2 01                LDX #$01
C225   AD 02 02             LDA $0202
C228   C0 52                CPY #$52
C22A   F0 01                BEQ LC22D
C22C   CA                   DEX
C22D   95 68      LC22D     STA $68,X
C22F   60                   RTS
C230   A9 00      LC230     LDA #$00
C232   8D F9 02             STA $02F9
C235   AD 8E 02             LDA $028E
C238   85 78                STA $78
C23A   20 FB E7             JSR LE7FB
C23D   A5 7D                LDA $7D
C23F   10 09                BPL LC24A
C241   29 0F                AND #$0F
C243   C9 0F                CMP #$0F
C245   F0 03                BEQ LC24A
C247   4C EE D8             JMP LD8EE
C24A   20 9D C3   LC24A     JSR LC39D
C24D   B1 A4                LDA ($A4),Y
C24F   8D 75 02             STA $0275
C252   A2 0C                LDX #$0C
C254   BD C7 F0   LC254     LDA $F0C7,X
C257   CD 75 02             CMP $0275
C25A   F0 08                BEQ LC264
C25C   CA                   DEX
C25D   10 F5                BPL LC254
C25F   A9 31                LDA #$31
C261   4C B2 C2             JMP LC2B2
C264   8E 2A 02   LC264     STX $022A
C267   E0 0A                CPX #$0A
C269   90 03                BCC LC26E
C26B   20 D8 C2             JSR LC2D8
C26E   AE 2A 02   LC26E     LDX $022A
C271   BD D4 F0             LDA $F0D4,X
C274   85 6E                STA $6E
C276   BD E1 F0             LDA $F0E1,X
C279   85 6F                STA $6F
C27B   6C 6E 00             JMP ($006E)
C27E   A9 00      LC27E     LDA #$00
C280   8D F9 02             STA $02F9
C283   AD 6C 02   LC283     LDA $026C
C286   D0 2A                BNE LC2B2
C288   A0 00                LDY #$00
C28A   98                   TYA
C28B   84 79                STY $79
C28D   84 7A      LC28D     STY $7A
C28F   84 A4                STY $A4
C291   20 06 E8             JSR LE806
C294   20 F0 F3             JSR LF3F0
C297   A5 78      LC297     LDA $78
C299   8D 8E 02             STA $028E
C29C   AA                   TAX
C29D   A9 00                LDA #$00
C29F   95 5F                STA $5F,X
C2A1   20 A7 C2             JSR LC2A7
C2A4   4C 2D D6             JMP LD62D
C2A7   A0 28      LC2A7     LDY #$28
C2A9   A9 00                LDA #$00
C2AB   99 00 02   LC2AB     STA $0200,Y
C2AE   88                   DEY
C2AF   10 FA                BPL LC2AB
C2B1   60                   RTS
C2B2   A0 00      LC2B2     LDY #$00
C2B4   84 79                STY $79
C2B6   84 7A                STY $7A
C2B8   4C 81 E7             JMP LE781
C2BB   A2 00      LC2BB     LDX #$00
C2BD   8E 7A 02             STX $027A
C2C0   A9 3A                LDA #$3A
C2C2   20 52 C3             JSR LC352
C2C5   F0 05                BEQ LC2CC
C2C7   88                   DEY
C2C8   88                   DEY
C2C9   8C 7A 02             STY $027A
C2CC   4C 52 C4   LC2CC     JMP LC452
C2CF   A0 00      LC2CF     LDY #$00
C2D1   A2 00                LDX #$00
C2D3   A9 3A                LDA #$3A
C2D5   4C 52 C3             JMP LC352
C2D8   20 CF C2   LC2D8     JSR LC2CF
C2DB   D0 05                BNE LC2E2
C2DD   A9 34      LC2DD     LDA #$34
C2DF   4C B2 C2             JMP LC2B2
C2E2   88         LC2E2     DEY
C2E3   88                   DEY
C2E4   8C 7A 02             STY $027A
C2E7   8A                   TXA
C2E8   D0 F3                BNE LC2DD
C2EA   A9 3D      LC2EA     LDA #$3D
C2EC   20 52 C3             JSR LC352
C2EF   8A                   TXA
C2F0   F0 02                BEQ LC2F4
C2F2   A9 40                LDA #$40
C2F4   09 21      LC2F4     ORA #$21
C2F6   8D 8B 02             STA $028B
C2F9   E8                   INX
C2FA   8E 77 02             STX $0277
C2FD   8E 78 02             STX $0278
C300   AD 8A 02             LDA $028A
C303   F0 0D                BEQ LC312
C305   A9 80                LDA #$80
C307   0D 8B 02             ORA $028B
C30A   8D 8B 02             STA $028B
C30D   A9 00                LDA #$00
C30F   8D 8A 02             STA $028A
C312   98         LC312     TYA
C313   F0 29                BEQ LC33E
C315   9D 7A 02             STA $027A,X
C318   AD 77 02             LDA $0277
C31B   8D 79 02             STA $0279
C31E   A9 8D                LDA #$8D
C320   20 52 C3             JSR LC352
C323   E8                   INX
C324   8E 78 02             STX $0278
C327   CA                   DEX
C328   AD 8A 02             LDA $028A
C32B   F0 02                BEQ LC32F
C32D   A9 08                LDA #$08
C32F   EC 77 02   LC32F     CPX $0277
C332   F0 02                BEQ LC336
C334   09 04                ORA #$04
C336   09 03      LC336     ORA #$03
C338   4D 8B 02             EOR $028B
C33B   8D 8B 02             STA $028B
C33E   AD 8B 02   LC33E     LDA $028B
C341   AE 2A 02             LDX $022A
C344   3D E5 F0             AND $F0E5,X
C347   D0 01                BNE LC34A
C349   60                   RTS
C34A   8D 6C 02   LC34A     STA $026C
C34D   A9 30                LDA #$30
C34F   4C B2 C2             JMP LC2B2
C352   8D 75 02   LC352     STA $0275
C355   CC 74 02   LC355     CPY $0274
C358   B0 2E                BCS LC388
C35A   B1 A4                LDA ($A4),Y
C35C   C8                   INY
C35D   CD 75 02             CMP $0275
C360   F0 28                BEQ LC38A
C362   C9 2A                CMP #$2A
C364   F0 04                BEQ LC36A
C366   C9 3F                CMP #$3F
C368   D0 03                BNE LC36D
C36A   EE 8A 02   LC36A     INC $028A
C36D   C9 2C      LC36D     CMP #$2C
C36F   D0 E4                BNE LC355
C371   98                   TYA
C372   9D 7B 02             STA $027B,X
C375   AD 8A 02             LDA $028A
C378   29 7F                AND #$7F
C37A   F0 07                BEQ LC383
C37C   A9 80                LDA #$80
C37E   95 E8                STA $E8,X
C380   8D 8A 02             STA $028A
C383   E8         LC383     INX
C384   E0 04                CPX #$04
C386   90 CD                BCC LC355
C388   A0 00      LC388     LDY #$00
C38A   AD 74 02   LC38A     LDA $0274
C38D   9D 7B 02             STA $027B,X
C390   AD 8A 02             LDA $028A
C393   29 7F                AND #$7F
C395   F0 04                BEQ LC39B
C397   A9 80                LDA #$80
C399   95 E8                STA $E8,X
C39B   98         LC39B     TYA
C39C   60                   RTS
C39D   A4 A4      LC39D     LDY $A4
C39F   F0 14                BEQ LC3B5
C3A1   88                   DEY
C3A2   F0 10                BEQ LC3B4
C3A4   B9 00 02             LDA $0200,Y
C3A7   C9 0D                CMP #$0D
C3A9   F0 0A                BEQ LC3B5
C3AB   88                   DEY
C3AC   B9 00 02             LDA $0200,Y
C3AF   C9 0D                CMP #$0D
C3B1   F0 02                BEQ LC3B5
C3B3   C8                   INY
C3B4   C8         LC3B4     INY
C3B5   8C 74 02   LC3B5     STY $0274
C3B8   C0 2A                CPY #$2A
C3BA   A0 FF                LDY #$FF
C3BC   90 08                BCC LC3C6
C3BE   8C 2A 02             STY $022A
C3C1   A9 32                LDA #$32
C3C3   4C B2 C2             JMP LC2B2
C3C6   A0 00      LC3C6     LDY #$00
C3C8   98                   TYA
C3C9   85 A4                STA $A4
C3CB   8D 58 02             STA $0258
C3CE   8D 4A 02             STA $024A
C3D1   8D 96 02             STA $0296
C3D4   85 99                STA $99
C3D6   8D 79 02             STA $0279
C3D9   8D 77 02             STA $0277
C3DC   8D 78 02             STA $0278
C3DF   8D 8A 02             STA $028A
C3E2   8D 6C 02             STA $026C
C3E5   A2 05                LDX #$05
C3E7   9D 79 02   LC3E7     STA $0279,X
C3EA   95 D8                STA $D8,X
C3EC   95 DD                STA $DD,X
C3EE   95 E2                STA $E2,X
C3F0   95 E7                STA $E7,X
C3F2   9D 7F 02             STA $027F,X
C3F5   9D 84 02             STA $0284,X
C3F8   CA                   DEX
C3F9   D0 EC                BNE LC3E7
C3FB   60                   RTS
C3FC   AD 78 02   LC3FC     LDA $0278
C3FF   8D 77 02             STA $0277
C402   A9 01                LDA #$01
C404   8D 78 02             STA $0278
C407   8D 79 02             STA $0279
C40A   AC 8E 02   LC40A     LDY $028E
C40D   A2 00                LDX #$00
C40F   86 99      LC40F     STX $99
C411   BD 7A 02             LDA $027A,X
C414   20 26 C4             JSR LC426
C417   A6 99                LDX $99
C419   9D 7A 02             STA $027A,X
C41C   98                   TYA
C41D   95 E3                STA $E3,X
C41F   E8                   INX
C420   EC 78 02             CPX $0278
C423   90 EA                BCC LC40F
C425   60                   RTS
C426   AA         LC426     TAX
C427   A0 00                LDY #$00
C429   A9 3A                LDA #$3A
C42B   DD 01 02             CMP $0201,X
C42E   F0 0C                BEQ LC43C
C430   DD 00 02             CMP $0200,X
C433   D0 01                BNE LC436
C435   E8                   INX
C436   98         LC436     TYA
C437   29 01      LC437     AND #$01
C439   A8         LC439     TAY
C43A   8A                   TXA
C43B   60                   RTS
C43C   BD 00 02   LC43C     LDA $0200,X
C43F   E8                   INX
C440   E8                   INX
C441   C9 30                CMP #$30
C443   F0 F2                BEQ LC437
C445   C9 31                CMP #$31
C447   F0 69                BEQ LC4B2
C449   D0 EB                BNE LC436
C44B   98                   TYA
C44C   09 80                ORA #$80
C44E   29 81                AND #$81
C450   D0 E7                BNE LC439
C452   A9 00      LC452     LDA #$00
C454   8D 8B 02             STA $028B
C457   AC 7A 02             LDY $027A
C45A   B1 A4      LC45A     LDA ($A4),Y
C45C   20 A5 C4             JSR LC4A5
C45F   10 11                BPL LC472
C461   C8                   INY
C462   CC 74 02             CPY $0274
C465   B0 06                BCS LC46D
C467   AC 74 02             LDY $0274
C46A   88                   DEY
C46B   D0 ED                BNE LC45A
C46D   CE 8B 02   LC46D     DEC $028B
C470   A9 00                LDA #$00
C472   29 01      LC472     AND #$01
C474   85 78                STA $78
C476   60                   RTS
C477   A5 78      LC477     LDA $78
C479   49 01                EOR #$01
C47B   29 01                AND #$01
C47D   85 78                STA $78
C47F   60                   RTS
C480   A0 00      LC480     LDY #$00
C482   AD 77 02             LDA $0277
C485   CD 78 02             CMP $0278
C488   F0 16                BEQ LC4A0
C48A   CE 78 02             DEC $0278
C48D   AC 78 02             LDY $0278
C490   B9 7A 02             LDA $027A,Y
C493   A8                   TAY
C494   B1 A4                LDA ($A4),Y
C496   A0 04                LDY #$04
C498   D9 FC F0   LC498     CMP $F0FC,Y
C49B   F0 03                BEQ LC4A0
C49D   88                   DEY
C49E   D0 F8                BNE LC498
C4A0   98         LC4A0     TYA
C4A1   8D 96 02             STA $0296
C4A4   60                   RTS
C4A5   C9 30      LC4A5     CMP #$30
C4A7   F0 06                BEQ LC4AF
C4A9   C9 31                CMP #$31
C4AB   F0 05                BEQ LC4B2
C4AD   09 80                ORA #$80
C4AF   29 81      LC4AF     AND #$81
C4B1   60                   RTS
C4B2   A9 31      LC4B2     LDA #$31
C4B4   4C B2 C2             JMP LC2B2
C4B7   A9 00      LC4B7     LDA #$00
C4B9   85 6E                STA $6E
C4BB   8D 8D 02             STA $028D
C4BE   48                   PHA
C4BF   AE 78 02             LDX $0278
C4C2   68         LC4C2     PLA
C4C3   05 6E                ORA $6E
C4C5   48                   PHA
C4C6   A9 01                LDA #$01
C4C8   85 6E                STA $6E
C4CA   CA                   DEX
C4CB   30 0F                BMI LC4DC
C4CD   B5 E3                LDA $E3,X
C4CF   10 04                BPL LC4D5
C4D1   06 6E                ASL $6E
C4D3   06 6E                ASL $6E
C4D5   4A         LC4D5     LSR A
C4D6   90 EA                BCC LC4C2
C4D8   06 6E                ASL $6E
C4DA   D0 E6                BNE LC4C2
C4DC   68         LC4DC     PLA
C4DD   AA                   TAX
C4DE   BD 2A C5             LDA $C52A,X
C4E1   48                   PHA
C4E2   29 03                AND #$03
C4E4   8D 8C 02             STA $028C
C4E7   68                   PLA
C4E8   0A                   ASL A
C4E9   10 3C                BPL LC527
C4EB   A5 E3                LDA $E3
C4ED   29 01      LC4ED     AND #$01
C4EF   85 78                STA $78
C4F1   AD 8C 02             LDA $028C
C4F4   F0 2B                BEQ LC521
C4F6   20 22 C7             JSR LC722
C4F9   F0 12                BEQ LC50D
C4FB   20 77 C4             JSR LC477
C4FE   A9 00                LDA #$00
C500   8D 8C 02             STA $028C
C503   20 22 C7             JSR LC722
C506   F0 1E                BEQ LC526
C508   A9 74      LC508     LDA #$74
C50A   20 B2 C2             JSR LC2B2
C50D   20 77 C4   LC50D     JSR LC477
C510   20 22 C7             JSR LC722
C513   08                   PHP
C514   20 77 C4             JSR LC477
C517   28                   PLP
C518   F0 0C                BEQ LC526
C51A   A9 00                LDA #$00
C51C   8D 8C 02             STA $028C
C51F   F0 05                BEQ LC526
C521   20 22 C7   LC521     JSR LC722
C524   D0 E2                BNE LC508
C526   60         LC526     RTS
C527   2A         LC527     ROL A
C528   4C ED C4             JMP LC4ED
C52B   00                   BRK
C52C   80 41                NOP #$41
C52E   01 01                ORA ($01,X)
C530   01 01                ORA ($01,X)
C532   81 81                STA ($81,X)
C534   81 81                STA ($81,X)
C536   42                   JAM
C537   42                   JAM
C538   42                   JAM
C539   42                   JAM
C53A   20 B7 C4   LC53A     JSR LC4B7
C53D   A9 00      LC53D     LDA #$00
C53F   8D 92 02             STA $0292
C542   20 91 C6             JSR LC691
C545   D0 16                BNE LC55D
C547   CE 8C 02   LC547     DEC $028C
C54A   10 01                BPL LC54D
C54C   60                   RTS
C54D   A9 01      LC54D     LDA #$01
C54F   8D 8D 02             STA $028D
C552   20 77 C4             JSR LC477
C555   4C 3D C5             JMP LC53D
C558   20 FC C6   LC558     JSR LC6FC
C55B   F0 10                BEQ LC56D
C55D   20 BD C5   LC55D     JSR LC5BD
C560   AD 8F 02             LDA $028F
C563   F0 01                BEQ LC566
C565   60                   RTS
C566   AD 53 02   LC566     LDA $0253
C569   30 ED                BMI LC558
C56B   10 F0                BPL LC55D
C56D   AD 8F 02   LC56D     LDA $028F
C570   F0 D5                BEQ LC547
C572   60                   RTS
C573   20 E9 C6   LC573     JSR LC6E9
C576   F0 17                BEQ LC58F
C578   D0 25                BNE LC59F
C57A   A9 01      LC57A     LDA #$01
C57C   8D 8D 02             STA $028D
C57F   20 77 C4             JSR LC477
C582   A9 00      LC582     LDA #$00
C584   8D 92 02             STA $0292
C587   20 91 C6             JSR LC691
C58A   D0 13                BNE LC59F
C58C   8D 8F 02             STA $028F
C58F   AD 8F 02   LC58F     LDA $028F
C592   D0 28                BNE LC5BC
C594   CE 8C 02             DEC $028C
C597   10 E1                BPL LC57A
C599   60                   RTS
C59A   20 FC C6   LC59A     JSR LC6FC
C59D   F0 F0                BEQ LC58F
C59F   20 BD C5   LC59F     JSR LC5BD
C5A2   AE 53 02             LDX $0253
C5A5   10 07                BPL LC5AE
C5A7   AD 8F 02             LDA $028F
C5AA   F0 EE                BEQ LC59A
C5AC   D0 0E                BNE LC5BC
C5AE   AD 96 02   LC5AE     LDA $0296
C5B1   F0 09                BEQ LC5BC
C5B3   B5 E8                LDA $E8,X
C5B5   29 07                AND #$07
C5B7   CD 96 02             CMP $0296
C5BA   D0 DE                BNE LC59A
C5BC   60         LC5BC     RTS
C5BD   A2 FF      LC5BD     LDX #$FF
C5BF   8E 53 02             STX $0253
C5C2   E8                   INX
C5C3   8E 8A 02             STX $028A
C5C6   20 6E C6             JSR LC66E
C5C9   F0 06                BEQ LC5D1
C5CB   60         LC5CB     RTS
C5CC   20 79 C6   LC5CC     JSR LC679
C5CF   D0 FA                BNE LC5CB
C5D1   A5 78      LC5D1     LDA $78
C5D3   55 E3                EOR $E3,X
C5D5   4A                   LSR A
C5D6   90 0B                BCC LC5E3
C5D8   29 40                AND #$40
C5DA   F0 F0                BEQ LC5CC
C5DC   A9 02                LDA #$02
C5DE   CD 8C 02             CMP $028C
C5E1   F0 E9                BEQ LC5CC
C5E3   BD 7A 02   LC5E3     LDA $027A,X
C5E6   AA                   TAX
C5E7   20 87 C7             JSR LC787
C5EA   A0 03                LDY #$03
C5EC   4C 02 C6             JMP LC602
C5EF   BD 00 02   LC5EF     LDA $0200,X
C5F2   D1 8D                CMP ($8D),Y
C5F4   F0 0A                BEQ LC600
C5F6   C9 3F                CMP #$3F
C5F8   D0 D2                BNE LC5CC
C5FA   B1 8D                LDA ($8D),Y
C5FC   C9 A0                CMP #$A0
C5FE   F0 CC                BEQ LC5CC
C600   E8         LC600     INX
C601   C8                   INY
C602   EC 76 02   LC602     CPX $0276
C605   B0 09                BCS LC610
C607   BD 00 02             LDA $0200,X
C60A   C9 2A                CMP #$2A
C60C   F0 0C                BEQ LC61A
C60E   D0 DF                BNE LC5EF
C610   C0 13      LC610     CPY #$13
C612   B0 06                BCS LC61A
C614   B1 8D                LDA ($8D),Y
C616   C9 A0                CMP #$A0
C618   D0 B2                BNE LC5CC
C61A   AE 79 02   LC61A     LDX $0279
C61D   8E 53 02             STX $0253
C620   B5 E8                LDA $E8,X
C622   29 80                AND #$80
C624   8D 8A 02             STA $028A
C627   AD 94 02             LDA $0294
C62A   95 DE                STA $DE,X
C62C   A5 7A                LDA $7A
C62E   95 D9                STA $D9,X
C630   A0 00                LDY #$00
C632   B1 8D                LDA ($8D),Y
C634   C8                   INY
C635   48                   PHA
C636   29 40                AND #$40
C638   85 6E                STA $6E
C63A   68                   PLA
C63B   29 DF                AND #$DF
C63D   30 02                BMI LC641
C63F   09 20                ORA #$20
C641   29 27      LC641     AND #$27
C643   05 6E                ORA $6E
C645   85 6E                STA $6E
C647   A9 80                LDA #$80
C649   35 E8                AND $E8,X
C64B   05 6E                ORA $6E
C64D   95 E8                STA $E8,X
C64F   B5 E3                LDA $E3,X
C651   29 80                AND #$80
C653   05 78                ORA $78
C655   95 E3                STA $E3,X
C657   B1 8D                LDA ($8D),Y
C659   9D 80 02             STA $0280,X
C65C   C8                   INY
C65D   B1 8D                LDA ($8D),Y
C65F   9D 85 02             STA $0285,X
C662   AD 58 02             LDA $0258
C665   D0 07                BNE LC66E
C667   A0 15                LDY #$15
C669   B1 8D                LDA ($8D),Y
C66B   8D 58 02             STA $0258
C66E   A9 FF      LC66E     LDA #$FF
C670   8D 8F 02             STA $028F
C673   AD 78 02             LDA $0278
C676   8D 79 02             STA $0279
C679   CE 79 02   LC679     DEC $0279
C67C   10 01                BPL LC67F
C67E   60                   RTS
C67F   AE 79 02   LC67F     LDX $0279
C682   B5 E8                LDA $E8,X
C684   30 05                BMI LC68B
C686   BD 80 02             LDA $0280,X
C689   D0 EE                BNE LC679
C68B   A9 00      LC68B     LDA #$00
C68D   8D 8F 02             STA $028F
C690   60                   RTS
C691   A0 00      LC691     LDY #$00
C693   8C 91 02             STY $0291
C696   88                   DEY
C697   8C 53 02             STY $0253
C69A   AD C3 F0             LDA $F0C3
C69D   85 79                STA $79
C69F   A9 01                LDA #$01
C6A1   85 7A                STA $7A
C6A3   8D 93 02             STA $0293
C6A6   20 C8 D5             JSR LD5C8
C6A9   AD 93 02   LC6A9     LDA $0293
C6AC   D0 01                BNE LC6AF
C6AE   60                   RTS
C6AF   A9 07      LC6AF     LDA #$07
C6B1   8D 95 02             STA $0295
C6B4   A9 00                LDA #$00
C6B6   20 49 D6             JSR LD649
C6B9   8D 93 02             STA $0293
C6BC   20 3B D6   LC6BC     JSR LD63B
C6BF   CE 95 02             DEC $0295
C6C2   A0 00                LDY #$00
C6C4   B1 8D                LDA ($8D),Y
C6C6   D0 18                BNE LC6E0
C6C8   AD 91 02             LDA $0291
C6CB   D0 2F                BNE LC6FC
C6CD   20 76 DF             JSR LDF76
C6D0   A5 7A                LDA $7A
C6D2   8D 91 02             STA $0291
C6D5   A5 8D                LDA $8D
C6D7   AE 92 02             LDX $0292
C6DA   8D 92 02             STA $0292
C6DD   F0 1D                BEQ LC6FC
C6DF   60                   RTS
C6E0   A2 01      LC6E0     LDX #$01
C6E2   EC 92 02             CPX $0292
C6E5   D0 2D                BNE LC714
C6E7   F0 13                BEQ LC6FC
C6E9   AD C3 F0   LC6E9     LDA $F0C3
C6EC   85 79                STA $79
C6EE   AD 90 02             LDA $0290
C6F1   85 7A                STA $7A
C6F3   20 C8 D5             JSR LD5C8
C6F6   AD 94 02             LDA $0294
C6F9   20 1B D6             JSR LD61B
C6FC   A9 FF      LC6FC     LDA #$FF
C6FE   8D 53 02             STA $0253
C701   AD 95 02             LDA $0295
C704   30 08                BMI LC70E
C706   A9 20                LDA #$20
C708   20 1C D3             JSR LD31C
C70B   4C BC C6             JMP LC6BC
C70E   20 A0 D5   LC70E     JSR LD5A0
C711   4C A9 C6             JMP LC6A9
C714   A5 8D      LC714     LDA $8D
C716   8D 94 02             STA $0294
C719   20 76 DF             JSR LDF76
C71C   A5 7A                LDA $7A
C71E   8D 90 02             STA $0290
C721   60                   RTS
C722   A6 78      LC722     LDX $78
C724   56 22                LSR $22,X
C726   90 22                BCC LC74A
C728   A9 FF                LDA #$FF
C72A   8D 98 02             STA $0298
C72D   20 2A D1             JSR LD12A
C730   A0 FF                LDY #$FF
C732   C9 02                CMP #$02
C734   F0 0A                BEQ LC740
C736   C9 03                CMP #$03
C738   F0 06                BEQ LC740
C73A   C9 0F                CMP #$0F
C73C   F0 02                BEQ LC740
C73E   A0 00                LDY #$00
C740   A6 78      LC740     LDX $78
C742   98                   TYA
C743   95 5F                STA $5F,X
C745   D0 03                BNE LC74A
C747   20 5E D1             JSR LD15E
C74A   A6 78      LC74A     LDX $78
C74C   B5 5F                LDA $5F,X
C74E   60                   RTS
C74F   48         LC74F     PHA
C750   20 87 C7             JSR LC787
C753   20 69 C7             JSR LC769
C756   68                   PLA
C757   38                   SEC
C758   ED 4B 02             SBC $024B
C75B   AA                   TAX
C75C   F0 0A                BEQ LC768
C75E   90 08                BCC LC768
C760   A9 A0                LDA #$A0
C762   91 8D      LC762     STA ($8D),Y
C764   C8                   INY
C765   CA                   DEX
C766   D0 FA                BNE LC762
C768   60         LC768     RTS
C769   98         LC769     TYA
C76A   0A                   ASL A
C76B   A8                   TAY
C76C   B9 9A 00             LDA $009A,Y
C76F   85 8D                STA $8D
C771   B9 9B 00             LDA $009B,Y
C774   85 8E                STA $8E
C776   A0 00                LDY #$00
C778   BD 00 02   LC778     LDA $0200,X
C77B   91 8D                STA ($8D),Y
C77D   C8                   INY
C77E   F0 06                BEQ LC786
C780   E8                   INX
C781   EC 76 02             CPX $0276
C784   90 F2                BCC LC778
C786   60         LC786     RTS
C787   A9 00      LC787     LDA #$00
C789   8D 4B 02             STA $024B
C78C   8A                   TXA
C78D   48                   PHA
C78E   BD 00 02   LC78E     LDA $0200,X
C791   C9 2C                CMP #$2C
C793   F0 14                BEQ LC7A9
C795   C9 3D                CMP #$3D
C797   F0 10                BEQ LC7A9
C799   EE 4B 02             INC $024B
C79C   E8                   INX
C79D   A9 0F                LDA #$0F
C79F   CD 4B 02             CMP $024B
C7A2   90 05                BCC LC7A9
C7A4   EC 74 02             CPX $0274
C7A7   90 E5                BCC LC78E
C7A9   8E 76 02   LC7A9     STX $0276
C7AC   68                   PLA
C7AD   AA                   TAX
C7AE   60                   RTS
C7AF   A5 7C      LC7AF     LDA $7C
C7B1   48                   PHA
C7B2   A5 7B                LDA $7B
C7B4   48                   PHA
C7B5   20 BF C7             JSR LC7BF
C7B8   68                   PLA
C7B9   85 7B                STA $7B
C7BB   68                   PLA
C7BC   85 7C                STA $7C
C7BE   60                   RTS
C7BF   A9 11      LC7BF     LDA #$11
C7C1   85 7C                STA $7C
C7C3   20 FB D1             JSR LD1FB
C7C6   20 3B D6             JSR LD63B
C7C9   AD 53 02             LDA $0253
C7CC   10 0A                BPL LC7D8
C7CE   AD 8D 02             LDA $028D
C7D1   D0 0A                BNE LC7DD
C7D3   20 E7 C8             JSR LC8E7
C7D6   18                   CLC
C7D7   60                   RTS
C7D8   AD 8D 02   LC7D8     LDA $028D
C7DB   F0 1F                BEQ LC7FC
C7DD   CE 8D 02   LC7DD     DEC $028D
C7E0   D0 0D                BNE LC7EF
C7E2   CE 8D 02             DEC $028D
C7E5   20 77 C4             JSR LC477
C7E8   20 E7 C8             JSR LC8E7
C7EB   38                   SEC
C7EC   4C 77 C4             JMP LC477
C7EF   A9 00      LC7EF     LDA #$00
C7F1   8D 73 02             STA $0273
C7F4   8D 8D 02             STA $028D
C7F7   20 98 C8             JSR LC898
C7FA   38                   SEC
C7FB   60                   RTS
C7FC   A2 18      LC7FC     LDX #$18
C7FE   A0 1D                LDY #$1D
C800   B1 8D                LDA ($8D),Y
C802   8D 73 02             STA $0273
C805   F0 02                BEQ LC809
C807   A2 16                LDX #$16
C809   88         LC809     DEY
C80A   B1 8D                LDA ($8D),Y
C80C   8D 72 02             STA $0272
C80F   E0 16                CPX #$16
C811   F0 0A                BEQ LC81D
C813   C9 0A                CMP #$0A
C815   90 06                BCC LC81D
C817   CA                   DEX
C818   C9 64                CMP #$64
C81A   90 01                BCC LC81D
C81C   CA                   DEX
C81D   20 8D C8   LC81D     JSR LC88D
C820   B1 8D                LDA ($8D),Y
C822   48                   PHA
C823   0A                   ASL A
C824   10 05                BPL LC82B
C826   A9 3C                LDA #$3C
C828   9D B2 02             STA $02B2,X
C82B   68         LC82B     PLA
C82C   29 0F                AND #$0F
C82E   A8                   TAY
C82F   B9 06 F1             LDA $F106,Y
C832   9D B1 02             STA $02B1,X
C835   CA                   DEX
C836   B9 01 F1             LDA $F101,Y
C839   9D B1 02             STA $02B1,X
C83C   CA                   DEX
C83D   B9 FC F0             LDA $F0FC,Y
C840   9D B1 02             STA $02B1,X
C843   CA                   DEX
C844   CA                   DEX
C845   B0 05                BCS LC84C
C847   A9 2A                LDA #$2A
C849   9D B2 02             STA $02B2,X
C84C   A9 A0      LC84C     LDA #$A0
C84E   9D B1 02             STA $02B1,X
C851   CA                   DEX
C852   A0 12                LDY #$12
C854   B1 8D      LC854     LDA ($8D),Y
C856   9D B1 02             STA $02B1,X
C859   CA                   DEX
C85A   88                   DEY
C85B   C0 03                CPY #$03
C85D   B0 F5                BCS LC854
C85F   A9 22                LDA #$22
C861   9D B1 02             STA $02B1,X
C864   E8         LC864     INX
C865   E0 20                CPX #$20
C867   B0 0B                BCS LC874
C869   BD B1 02             LDA $02B1,X
C86C   C9 22                CMP #$22
C86E   F0 04                BEQ LC874
C870   C9 A0                CMP #$A0
C872   D0 F0                BNE LC864
C874   A9 22      LC874     LDA #$22
C876   9D B1 02             STA $02B1,X
C879   E8         LC879     INX
C87A   E0 20                CPX #$20
C87C   B0 0A                BCS LC888
C87E   A9 7F                LDA #$7F
C880   3D B1 02             AND $02B1,X
C883   9D B1 02             STA $02B1,X
C886   10 F1                BPL LC879
C888   20 9A C5   LC888     JSR LC59A
C88B   38                   SEC
C88C   60                   RTS
C88D   A0 1B      LC88D     LDY #$1B
C88F   A9 20                LDA #$20
C891   99 B0 02   LC891     STA $02B0,Y
C894   88                   DEY
C895   D0 FA                BNE LC891
C897   60                   RTS
C898   20 84 EF   LC898     JSR LEF84
C89B   20 4A EF             JSR LEF4A
C89E   20 8D C8             JSR LC88D
C8A1   A9 FF                LDA #$FF
C8A3   85 6E                STA $6E
C8A5   A6 78                LDX $78
C8A7   8E 72 02             STX $0272
C8AA   A9 00                LDA #$00
C8AC   8D 73 02             STA $0273
C8AF   A6 98                LDX $98
C8B1   BD 23 F1             LDA $F123,X
C8B4   85 8E                STA $8E
C8B6   AD C6 F0             LDA $F0C6
C8B9   85 8D                STA $8D
C8BB   A0 16                LDY #$16
C8BD   B1 8D                LDA ($8D),Y
C8BF   C9 A0                CMP #$A0
C8C1   D0 0B                BNE LC8CE
C8C3   A9 31                LDA #$31
C8C5   2C B1 8D             BIT $8DB1
C8C8   C9 A0                CMP #$A0
C8CA   D0 02                BNE LC8CE
C8CC   A9 20                LDA #$20
C8CE   99 B3 02   LC8CE     STA $02B3,Y
C8D1   88                   DEY
C8D2   10 F2                BPL LC8C6
C8D4   A9 12                LDA #$12
C8D6   8D B1 02             STA $02B1
C8D9   A9 22                LDA #$22
C8DB   8D B2 02             STA $02B2
C8DE   8D C3 02             STA $02C3
C8E1   A9 20                LDA #$20
C8E3   8D C4 02             STA $02C4
C8E6   60                   RTS
C8E7   20 8D C8   LC8E7     JSR LC88D
C8EA   A0 0B                LDY #$0B
C8EC   B9 F8 C8   LC8EC     LDA $C8F8,Y
C8EF   99 B1 02             STA $02B1,Y
C8F2   88                   DEY
C8F3   10 F7                BPL LC8EC
C8F5   4C B8 ED             JMP LEDB8
C8F8   42                   JAM
C8F9   4C 4F 43             JMP $434F
C8FC   4B 53                ALR #$53
C8FE   20 46 52             JSR $5246
C901   45 45                EOR $45
C903   2E 20 80             ROL $8020
C906   C4 20                CPY $20
C908   0A                   ASL A
C909   C4 20                CPY $20
C90B   B7 C4                LAX $C4,Y
C90D   A9 00                LDA #$00
C90F   85 7F                STA $7F
C911   20 82 C5             JSR LC582
C914   30 3D                BMI LC953
C916   20 F2 DE   LC916     JSR LDEF2
C919   90 33                BCC LC94E
C91B   A0 00                LDY #$00
C91D   B1 8D                LDA ($8D),Y
C91F   29 40                AND #$40
C921   D0 2B                BNE LC94E
C923   20 97 C9             JSR LC997
C926   A0 13                LDY #$13
C928   B1 8D                LDA ($8D),Y
C92A   F0 0A                BEQ LC936
C92C   85 79                STA $79
C92E   C8                   INY
C92F   B1 8D                LDA ($8D),Y
C931   85 7A                STA $7A
C933   20 5E C9             JSR LC95E
C936   AE 53 02   LC936     LDX $0253
C939   A9 20                LDA #$20
C93B   35 E8                AND $E8,X
C93D   D0 0D                BNE LC94C
C93F   BD 80 02             LDA $0280,X
C942   85 79                STA $79
C944   BD 85 02             LDA $0285,X
C947   85 7A                STA $7A
C949   20 5E C9             JSR LC95E
C94C   E6 7F      LC94C     INC $7F
C94E   20 73 C5   LC94E     JSR LC573
C951   10 C3                BPL LC916
C953   A5 7F      LC953     LDA $7F
C955   85 79                STA $79
C957   A9 01                LDA #$01
C959   A0 00                LDY #$00
C95B   4C 8D C2             JMP LC28D
C95E   20 CA ED   LC95E     JSR LEDCA
C961   20 C8 D5             JSR LD5C8
C964   20 84 EF             JSR LEF84
C967   B5 A8                LDA $A8,X
C969   C9 FF                CMP #$FF
C96B   F0 08                BEQ LC975
C96D   AD F9 02             LDA $02F9
C970   09 40                ORA #$40
C972   8D F9 02             STA $02F9
C975   A9 00      LC975     LDA #$00
C977   20 1B D6             JSR LD61B
C97A   20 71 D2             JSR LD271
C97D   85 79                STA $79
C97F   20 71 D2             JSR LD271
C982   85 7A                STA $7A
C984   A5 79                LDA $79
C986   D0 06                BNE LC98E
C988   20 5F ED             JSR LED5F
C98B   4C 7D D3             JMP LD37D
C98E   20 CA ED   LC98E     JSR LEDCA
C991   20 A0 D5             JSR LD5A0
C994   4C 75 C9             JMP LC975
C997   A0 00      LC997     LDY #$00
C999   98                   TYA
C99A   91 8D                STA ($8D),Y
C99C   20 99 DF             JSR LDF99
C99F   4C EC D6             JMP LD6EC
C9A2   A9 31      LC9A2     LDA #$31
C9A4   4C B2 C2             JMP LC2B2
C9A7   A9 03      LC9A7     LDA #$03
C9A9   20 08 D8             JSR LD808
C9AC   A2 03                LDX #$03
C9AE   A9 F0                LDA #$F0
C9B0   85 FF                STA $FF
C9B2   8D FE 02             STA $02FE
C9B5   20 C8 C9             JSR LC9C8
C9B8   A9 01                LDA #$01
C9BA   85 0E                STA $0E
C9BC   A9 00                LDA #$00
C9BE   85 0F                STA $0F
C9C0   A9 80                LDA #$80
C9C2   8D FE 02             STA $02FE
C9C5   4C C8 C9             JMP LC9C8
C9C8   A0 03      LC9C8     LDY #$03
C9CA   AD FE 02   LC9CA     LDA $02FE
C9CD   95 02                STA $02,X
C9CF   20 19 D8             JSR LD819
C9D2   C9 02                CMP #$02
C9D4   90 0E                BCC LC9E4
C9D6   A9 FF                LDA #$FF
C9D8   85 40                STA $40
C9DA   85 FF                STA $FF
C9DC   88                   DEY
C9DD   D0 EB                BNE LC9CA
C9DF   A2 00                LDX #$00
C9E1   4C 46 E7             JMP LE746
C9E4   60         LC9E4     RTS
C9E5   A9 E0                LDA #$E0
C9E7   8D 4F 02             STA $024F
C9EA   20 3C EF             JSR LEF3C
C9ED   20 84 EF             JSR LEF84
C9F0   A9 FF                LDA #$FF
C9F2   95 A8                STA $A8,X
C9F4   A9 0F                LDA #$0F
C9F6   8D 56 02             STA $0256
C9F9   20 CF C2             JSR LC2CF
C9FC   D0 03                BNE LCA01
C9FE   4C A2 C9             JMP LC9A2
CA01   20 E2 C2   LCA01     JSR LC2E2
CA04   20 0A C4             JSR LC40A
CA07   AD 8B 02             LDA $028B
CA0A   29 55                AND #$55
CA0C   D0 0F                BNE LCA1D
CA0E   AE 7A 02             LDX $027A
CA11   BD 00 02             LDA $0200,X
CA14   C9 2A                CMP #$2A
CA16   D0 05                BNE LCA1D
CA18   A9 30      LCA18     LDA #$30
CA1A   4C B2 C2             JMP LC2B2
CA1D   AD 8B 02   LCA1D     LDA $028B
CA20   29 D9                AND #$D9
CA22   D0 F4                BNE LCA18
CA24   4C 47 CA             JMP LCA47
CA27   A9 00                LDA #$00
CA29   8D 58 02             STA $0258
CA2C   8D 8C 02             STA $028C
CA2F   8D 80 02             STA $0280
CA32   8D 81 02             STA $0281
CA35   A5 E4                LDA $E4
CA37   29 01                AND #$01
CA39   85 78                STA $78
CA3B   09 01                ORA #$01
CA3D   8D 91 02             STA $0291
CA40   AD 7B 02             LDA $027B
CA43   8D 7A 02             STA $027A
CA46   60                   RTS
CA47   20 3A C5   LCA47     JSR LC53A
CA4A   AD 78 02             LDA $0278
CA4D   C9 03                CMP #$03
CA4F   90 45                BCC LCA96
CA51   A5 E3                LDA $E3
CA53   C5 E4                CMP $E4
CA55   D0 3F                BNE LCA96
CA57   A5 DE                LDA $DE
CA59   C5 DF                CMP $DF
CA5B   D0 39                BNE LCA96
CA5D   A5 D9                LDA $D9
CA5F   C5 DA                CMP $DA
CA61   D0 33                BNE LCA96
CA63   20 C1 CB             JSR LCBC1
CA66   A9 01                LDA #$01
CA68   8D 79 02             STA $0279
CA6B   20 EF CA             JSR LCAEF
CA6E   20 35 D2             JSR LD235
CA71   F0 04                BEQ LCA77
CA73   C9 02                CMP #$02
CA75   D0 05                BNE LCA7C
CA77   A9 64      LCA77     LDA #$64
CA79   20 B2 C2             JSR LC2B2
CA7C   A9 12      LCA7C     LDA #$12
CA7E   85 7C                STA $7C
CA80   AD 3C 02             LDA $023C
CA83   8D 3D 02             STA $023D
CA86   A9 FF                LDA #$FF
CA88   8D 3C 02             STA $023C
CA8B   20 61 DB             JSR LDB61
CA8E   A2 02                LDX #$02
CA90   20 AE CA             JSR LCAAE
CA93   4C 7E C2             JMP LC27E
CA96   20 9C CA   LCA96     JSR LCA9C
CA99   4C 7E C2             JMP LC27E
CA9C   20 DC CB   LCA9C     JSR LCBDC
CA9F   A5 E3                LDA $E3
CAA1   29 01                AND #$01
CAA3   85 78                STA $78
CAA5   20 D9 D5             JSR LD5D9
CAA8   20 1E D8             JSR LD81E
CAAB   AE 77 02             LDX $0277
CAAE   8E 79 02   LCAAE     STX $0279
CAB1   20 EF CA             JSR LCAEF
CAB4   A9 11                LDA #$11
CAB6   85 7C                STA $7C
CAB8   20 FB D1             JSR LD1FB
CABB   20 35 D2             JSR LD235
CABE   D0 03                BNE LCAC3
CAC0   20 48 CB             JSR LCB48
CAC3   A9 08      LCAC3     LDA #$08
CAC5   85 95                STA $95
CAC7   4C CD CA             JMP LCACD
CACA   20 BA D0   LCACA     JSR LD0BA
CACD   20 2A CB   LCACD     JSR LCB2A
CAD0   A9 80                LDA #$80
CAD2   20 E1 DE             JSR LDEE1
CAD5   F0 F3                BEQ LCACA
CAD7   20 35 D2             JSR LD235
CADA   F0 03                BEQ LCADF
CADC   20 BA D0             JSR LD0BA
CADF   AE 79 02   LCADF     LDX $0279
CAE2   E8                   INX
CAE3   EC 78 02             CPX $0278
CAE6   90 C6                BCC LCAAE
CAE8   A9 12                LDA #$12
CAEA   85 7C                STA $7C
CAEC   4C 39 DC             JMP LDC39
CAEF   AE 79 02   LCAEF     LDX $0279
CAF2   B5 E3                LDA $E3,X
CAF4   29 01                AND #$01
CAF6   85 78                STA $78
CAF8   AD C3 F0             LDA $F0C3
CAFB   85 79                STA $79
CAFD   B5 D9                LDA $D9,X
CAFF   85 7A                STA $7A
CB01   20 C8 D5             JSR LD5C8
CB04   AE 79 02             LDX $0279
CB07   B5 DE                LDA $DE,X
CB09   20 1B D6             JSR LD61B
CB0C   AE 79 02             LDX $0279
CB0F   B5 E8                LDA $E8,X
CB11   29 07                AND #$07
CB13   8D 4A 02             STA $024A
CB16   A9 00                LDA #$00
CB18   8D 58 02             STA $0258
CB1B   20 D7 DA             JSR LDAD7
CB1E   A0 01                LDY #$01
CB20   20 35 D2             JSR LD235
CB23   F0 01                BEQ LCB26
CB25   C8                   INY
CB26   98         LCB26     TYA
CB27   4C 1B D6             JMP LD61B
CB2A   A9 11      LCB2A     LDA #$11
CB2C   85 7C                STA $7C
CB2E   20 ED D4   LCB2E     JSR LD4ED
CB31   85 7E                STA $7E
CB33   A6 7B                LDX $7B
CB35   B5 F3                LDA $F3,X
CB37   29 08                AND #$08
CB39   85 95                STA $95
CB3B   D0 0A                BNE LCB47
CB3D   20 35 D2             JSR LD235
CB40   F0 05                BEQ LCB47
CB42   A9 80                LDA #$80
CB44   20 D2 DE             JSR LDED2
CB47   60         LCB47     RTS
CB48   20 29 D3   LCB48     JSR LD329
CB4B   20 06 E3             JSR LE306
CB4E   A5 93                LDA $93
CB50   48                   PHA
CB51   A5 92                LDA $92
CB53   48                   PHA
CB54   A9 12                LDA #$12
CB56   85 7C                STA $7C
CB58   20 17 D2             JSR LD217
CB5B   20 29 D3             JSR LD329
CB5E   20 06 E3             JSR LE306
CB61   20 D7 E3             JSR LE3D7
CB64   A5 93                LDA $93
CB66   85 80                STA $80
CB68   A5 92                LDA $92
CB6A   85 7F                STA $7F
CB6C   A9 00                LDA #$00
CB6E   85 81                STA $81
CB70   85 91                STA $91
CB72   85 94                STA $94
CB74   68                   PLA
CB75   85 92                STA $92
CB77   68                   PLA
CB78   85 93                STA $93
CB7A   4C 76 E4             JMP LE476
CB7D   20 0A C4             JSR LC40A
CB80   A5 E4                LDA $E4
CB82   29 01                AND #$01
CB84   85 E4                STA $E4
CB86   C5 E3                CMP $E3
CB88   F0 02                BEQ LCB8C
CB8A   09 80                ORA #$80
CB8C   85 E3      LCB8C     STA $E3
CB8E   20 3A C5             JSR LC53A
CB91   20 DC CB             JSR LCBDC
CB94   A5 E4                LDA $E4
CB96   29 01                AND #$01
CB98   85 78                STA $78
CB9A   A5 DA                LDA $DA
CB9C   85 7A                STA $7A
CB9E   20 92 DF             JSR LDF92
CBA1   20 EC D6             JSR LD6EC
CBA4   A5 DF                LDA $DF
CBA6   18                   CLC
CBA7   69 03                ADC #$03
CBA9   20 1B D6             JSR LD61B
CBAC   20 CE E0             JSR LE0CE
CBAF   A8                   TAY
CBB0   AE 7A 02             LDX $027A
CBB3   A9 10                LDA #$10
CBB5   20 4F C7             JSR LC74F
CBB8   20 99 DF             JSR LDF99
CBBB   20 EC D6             JSR LD6EC
CBBE   4C 7E C2             JMP LC27E
CBC1   A5 E9      LCBC1     LDA $E9
CBC3   29 07                AND #$07
CBC5   8D 4A 02             STA $024A
CBC8   AE 78 02             LDX $0278
CBCB   CA         LCBCB     DEX
CBCC   EC 77 02             CPX $0277
CBCF   90 0A                BCC LCBDB
CBD1   BD 80 02             LDA $0280,X
CBD4   D0 F5                BNE LCBCB
CBD6   A9 62                LDA #$62
CBD8   4C B2 C2             JMP LC2B2
CBDB   60         LCBDB     RTS
CBDC   20 C1 CB   LCBDC     JSR LCBC1
CBDF   BD 80 02   LCBDF     LDA $0280,X
CBE2   F0 05                BEQ LCBE9
CBE4   A9 63                LDA #$63
CBE6   4C B2 C2             JMP LC2B2
CBE9   CA         LCBE9     DEX
CBEA   10 F3                BPL LCBDF
CBEC   60                   RTS
CBED   AD 01 02             LDA $0201
CBF0   C9 2D                CMP #$2D
CBF2   D0 49                BNE LCC3D
CBF4   AD 03 02             LDA $0203
CBF7   85 6E                STA $6E
CBF9   AD 04 02             LDA $0204
CBFC   85 6F                STA $6F
CBFE   A0 00                LDY #$00
CC00   AD 02 02             LDA $0202
CC03   C9 52                CMP #$52
CC05   F0 0B                BEQ LCC12
CC07   C9 57                CMP #$57
CC09   F0 37                BEQ LCC42
CC0B   C9 45                CMP #$45
CC0D   D0 2E                BNE LCC3D
CC0F   6C 6E 00             JMP ($006E)
CC12   B1 6E      LCC12     LDA ($6E),Y
CC14   85 7E                STA $7E
CC16   AD 74 02             LDA $0274
CC19   C9 06                CMP #$06
CC1B   90 1A                BCC LCC37
CC1D   AE 05 02             LDX $0205
CC20   CA                   DEX
CC21   F0 14                BEQ LCC37
CC23   8A                   TXA
CC24   18                   CLC
CC25   65 6E                ADC $6E
CC27   E6 6E                INC $6E
CC29   8D 49 02             STA $0249
CC2C   A5 6E                LDA $6E
CC2E   85 A6                STA $A6
CC30   A5 6F                LDA $6F
CC32   85 A7                STA $A7
CC34   4C 96 D5             JMP LD596
CC37   20 FB D1   LCC37     JSR LD1FB
CC3A   4C 8D D5             JMP LD58D
CC3D   A9 31      LCC3D     LDA #$31
CC3F   4C B2 C2             JMP LC2B2
CC42   B9 06 02   LCC42     LDA $0206,Y
CC45   91 6E                STA ($6E),Y
CC47   C8                   INY
CC48   CC 05 02             CPY $0205
CC4B   90 F5                BCC LCC42
CC4D   60                   RTS
CC4E   AC 01 02             LDY $0201
CC51   C0 30                CPY #$30
CC53   D0 09                BNE LCC5E
CC55   A9 EA      LCC55     LDA #$EA
CC57   85 6A                STA $6A
CC59   A9 FF                LDA #$FF
CC5B   85 6B                STA $6B
CC5D   60                   RTS
CC5E   20 64 CC   LCC5E     JSR LCC64
CC61   4C 7E C2             JMP LC27E
CC64   88         LCC64     DEY
CC65   98                   TYA
CC66   29 0F                AND #$0F
CC68   0A                   ASL A
CC69   A8                   TAY
CC6A   B1 6A                LDA ($6A),Y
CC6C   85 74                STA $74
CC6E   C8                   INY
CC6F   B1 6A                LDA ($6A),Y
CC71   85 75                STA $75
CC73   6C 74 00             JMP ($0074)
CC76   AD 8E 02   LCC76     LDA $028E
CC79   85 78                STA $78
CC7B   A5 7C                LDA $7C
CC7D   48                   PHA
CC7E   20 22 C7             JSR LC722
CC81   68                   PLA
CC82   85 7C                STA $7C
CC84   AE 74 02             LDX $0274
CC87   CA                   DEX
CC88   D0 0D                BNE LCC97
CC8A   A9 01                LDA #$01
CC8C   20 38 D3             JSR LD338
CC8F   4C E3 CC             JMP LCCE3
CC92   A9 70      LCC92     LDA #$70
CC94   4C B2 C2             JMP LC2B2
CC97   A0 01      LCC97     LDY #$01
CC99   20 6E CD             JSR LCD6E
CC9C   AE 85 02             LDX $0285
CC9F   E0 05                CPX #$05
CCA1   B0 EF                BCS LCC92
CCA3   A9 00                LDA #$00
CCA5   85 6E                STA $6E
CCA7   85 6F                STA $6F
CCA9   38                   SEC
CCAA   26 6E      LCCAA     ROL $6E
CCAC   26 6F                ROL $6F
CCAE   CA                   DEX
CCAF   10 F9                BPL LCCAA
CCB1   A5 6E                LDA $6E
CCB3   2D 4F 02             AND $024F
CCB6   D0 DA                BNE LCC92
CCB8   A5 6F                LDA $6F
CCBA   2D 50 02             AND $0250
CCBD   D0 D3                BNE LCC92
CCBF   A5 6E                LDA $6E
CCC1   0D 4F 02             ORA $024F
CCC4   8D 4F 02             STA $024F
CCC7   A5 6F                LDA $6F
CCC9   0D 50 02             ORA $0250
CCCC   8D 50 02             STA $0250
CCCF   A9 00                LDA #$00
CCD1   20 38 D3             JSR LD338
CCD4   A6 7B                LDX $7B
CCD6   AD 85 02             LDA $0285
CCD9   95 A8                STA $A8,X
CCDB   AA                   TAX
CCDC   A5 78                LDA $78
CCDE   95 02                STA $02,X
CCE0   9D 5B 02             STA $025B,X
CCE3   A6 7C      LCCE3     LDX $7C
CCE5   BD 2B 02             LDA $022B,X
CCE8   09 40                ORA #$40
CCEA   9D 2B 02             STA $022B,X
CCED   A4 7B                LDY $7B
CCEF   A9 FF                LDA #$FF
CCF1   99 44 02             STA $0244,Y
CCF4   A9 89                LDA #$89
CCF6   99 F3 00             STA $00F3,Y
CCF9   B9 A8 00             LDA $00A8,Y
CCFC   99 3E 02             STA $023E,Y
CCFF   0A                   ASL A
CD00   AA                   TAX
CD01   A9 01                LDA #$01
CD03   95 9A                STA $9A,X
CD05   A9 0E                LDA #$0E
CD07   99 ED 00             STA $00ED,Y
CD0A   4C 7E C2             JMP LC27E
CD0D   A0 00                LDY #$00
CD0F   A2 00                LDX #$00
CD11   A9 2D                LDA #$2D
CD13   20 52 C3             JSR LC352
CD16   D0 0A                BNE LCD22
CD18   A9 31      LCD18     LDA #$31
CD1A   4C B2 C2             JMP LC2B2
CD1D   A9 30      LCD1D     LDA #$30
CD1F   4C B2 C2             JMP LC2B2
CD22   8A         LCD22     TXA
CD23   D0 F8                BNE LCD1D
CD25   A2 05                LDX #$05
CD27   B9 00 02             LDA $0200,Y
CD2A   DD 4F CD   LCD2A     CMP $CD4F,X
CD2D   F0 05                BEQ LCD34
CD2F   CA                   DEX
CD30   10 F8                BPL LCD2A
CD32   30 E4                BMI LCD18
CD34   8A         LCD34     TXA
CD35   09 80                ORA #$80
CD37   8D 2A 02             STA $022A
CD3A   20 61 CD             JSR LCD61
CD3D   AD 2A 02             LDA $022A
CD40   0A                   ASL A
CD41   AA                   TAX
CD42   BD 56 CD             LDA $CD56,X
CD45   85 6F                STA $6F
CD47   BD 55 CD             LDA $CD55,X
CD4A   85 6E                STA $6E
CD4C   6C 6E 00             JMP ($006E)
CD4F   41 46                EOR ($46,X)
CD51   52                   JAM
CD52   57 45                SRE $45,X
CD54   50 F5                BVC LCD4B
CD56   CD E7 CD             CMP $CDE7
CD59   48                   PHA
CD5A   CE 65 CE             DEC $CE65
CD5D   97 CE                SAX $CE,Y
CD5F   AE CE A0             LDX $A0CE
CD62   00                   BRK
CD63   A2 00                LDX #$00
CD65   A9 3A                LDA #$3A
CD67   20 52 C3             JSR LC352
CD6A   D0 02                BNE LCD6E
CD6C   A0 03                LDY #$03
CD6E   B9 00 02   LCD6E     LDA $0200,Y
CD71   C9 20                CMP #$20
CD73   F0 08                BEQ LCD7D
CD75   C9 1D                CMP #$1D
CD77   F0 04                BEQ LCD7D
CD79   C9 2C                CMP #$2C
CD7B   D0 07                BNE LCD84
CD7D   C8         LCD7D     INY
CD7E   CC 74 02             CPY $0274
CD81   90 EB                BCC LCD6E
CD83   60                   RTS
CD84   20 93 CD   LCD84     JSR LCD93
CD87   EE 77 02             INC $0277
CD8A   AC 79 02             LDY $0279
CD8D   E0 04                CPX #$04
CD8F   90 EC                BCC LCD7D
CD91   B0 8A                BCS LCD1D
CD93   A9 00      LCD93     LDA #$00
CD95   85 6E                STA $6E
CD97   85 6F                STA $6F
CD99   85 71                STA $71
CD9B   A2 FF                LDX #$FF
CD9D   B9 00 02   LCD9D     LDA $0200,Y
CDA0   C9 40                CMP #$40
CDA2   B0 18                BCS LCDBC
CDA4   C9 30                CMP #$30
CDA6   90 14                BCC LCDBC
CDA8   29 0F                AND #$0F
CDAA   48                   PHA
CDAB   A5 6F                LDA $6F
CDAD   85 70                STA $70
CDAF   A5 6E                LDA $6E
CDB1   85 6F                STA $6F
CDB3   68                   PLA
CDB4   85 6E                STA $6E
CDB6   C8                   INY
CDB7   CC 74 02             CPY $0274
CDBA   90 E1                BCC LCD9D
CDBC   8C 79 02   LCDBC     STY $0279
CDBF   18                   CLC
CDC0   A9 00                LDA #$00
CDC2   E8         LCDC2     INX
CDC3   E0 03                CPX #$03
CDC5   B0 0F                BCS LCDD6
CDC7   B4 6E                LDY $6E,X
CDC9   88         LCDC9     DEY
CDCA   30 F6                BMI LCDC2
CDCC   7D E4 CD             ADC $CDE4,X
CDCF   90 F8                BCC LCDC9
CDD1   18                   CLC
CDD2   E6 71                INC $71
CDD4   D0 F3                BNE LCDC9
CDD6   48         LCDD6     PHA
CDD7   AE 77 02             LDX $0277
CDDA   A5 71                LDA $71
CDDC   9D 80 02             STA $0280,X
CDDF   68                   PLA
CDE0   9D 85 02             STA $0285,X
CDE3   60                   RTS
CDE4   01 0A                ORA ($0A,X)
CDE6   64 20                NOP $20
CDE8   E6 CE                INC $CE
CDEA   20 CA ED             JSR LEDCA
CDED   4C 7E C2             JMP LC27E
CDF0   A9 01                LDA #$01
CDF2   8D F9 02             STA $02F9
CDF5   20 E6 CE             JSR LCEE6
CDF8   A5 7A                LDA $7A
CDFA   48                   PHA
CDFB   20 65 F0             JSR LF065
CDFE   F0 0B                BEQ LCE0B
CE00   68                   PLA
CE01   C5 7A                CMP $7A
CE03   D0 19                BNE LCE1E
CE05   20 FB ED             JSR LEDFB
CE08   4C 7E C2             JMP LC27E
CE0B   68         LCE0B     PLA
CE0C   A9 00      LCE0C     LDA #$00
CE0E   85 7A                STA $7A
CE10   E6 79                INC $79
CE12   A5 79                LDA $79
CE14   CD 1A F1             CMP $F11A
CE17   B0 0A                BCS LCE23
CE19   20 65 F0             JSR LF065
CE1C   F0 EE                BEQ LCE0C
CE1E   A9 65      LCE1E     LDA #$65
CE20   20 81 E7             JSR LE781
CE23   A9 65      LCE23     LDA #$65
CE25   20 B2 C2             JSR LC2B2
CE28   20 E3 CE   LCE28     JSR LCEE3
CE2B   4C B3 D5             JMP LD5B3
CE2E   20 3F D2   LCE2E     JSR LD23F
CE31   A1 9A                LDA ($9A,X)
CE33   60                   RTS
CE34   20 28 CE   LCE34     JSR LCE28
CE37   A9 00                LDA #$00
CE39   20 1B D6             JSR LD61B
CE3C   20 2E CE             JSR LCE2E
CE3F   99 44 02             STA $0244,Y
CE42   A9 89                LDA #$89
CE44   99 F3 00             STA $00F3,Y
CE47   60                   RTS
CE48   20 34 CE             JSR LCE34
CE4B   20 3F D5             JSR LD53F
CE4E   4C 7E C2             JMP LC27E
CE51   20 61 CD             JSR LCD61
CE54   20 34 CE             JSR LCE34
CE57   B9 44 02             LDA $0244,Y
CE5A   99 3E 02             STA $023E,Y
CE5D   A9 FF                LDA #$FF
CE5F   99 44 02             STA $0244,Y
CE62   4C 7E C2             JMP LC27E
CE65   20 E3 CE             JSR LCEE3
CE68   20 3B D6             JSR LD63B
CE6B   A8                   TAY
CE6C   88                   DEY
CE6D   C9 02                CMP #$02
CE6F   B0 02                BCS LCE73
CE71   A0 01                LDY #$01
CE73   A9 00      LCE73     LDA #$00
CE75   20 1B D6             JSR LD61B
CE78   98                   TYA
CE79   20 0D D1             JSR LD10D
CE7C   8A                   TXA
CE7D   48                   PHA
CE7E   20 B7 D5             JSR LD5B7
CE81   68                   PLA
CE82   AA                   TAX
CE83   A4 7B                LDY $7B
CE85   20 41 D5             JSR LD541
CE88   4C 7E C2             JMP LC27E
CE8B   20 61 CD             JSR LCD61
CE8E   20 E3 CE             JSR LCEE3
CE91   20 B7 D5             JSR LD5B7
CE94   4C 7E C2             JMP LC27E
CE97   20 28 CE             JSR LCE28
CE9A   A9 00                LDA #$00
CE9C   85 6E                STA $6E
CE9E   A6 98                LDX $98
CEA0   BD 23 F1             LDA $F123,X
CEA3   85 6F                STA $6F
CEA5   20 AB CE             JSR LCEAB
CEA8   4C 7E C2             JMP LC27E
CEAB   6C 6E 00   LCEAB     JMP ($006E)
CEAE   20 C3 CE             JSR LCEC3
CEB1   A5 98                LDA $98
CEB3   0A                   ASL A
CEB4   AA                   TAX
CEB5   AD 86 02             LDA $0286
CEB8   95 9A                STA $9A,X
CEBA   20 3F D2             JSR LD23F
CEBD   20 41 D5             JSR LD541
CEC0   4C 7E C2             JMP LC27E
CEC3   A6 99      LCEC3     LDX $99
CEC5   E6 99                INC $99
CEC7   BD 85 02             LDA $0285,X
CECA   A8                   TAY
CECB   88                   DEY
CECC   88                   DEY
CECD   C0 0C                CPY #$0C
CECF   90 05                BCC LCED6
CED1   A9 70      LCED1     LDA #$70
CED3   4C B2 C2             JMP LC2B2
CED6   85 7C      LCED6     STA $7C
CED8   20 FB D1             JSR LD1FB
CEDB   B0 F4                BCS LCED1
CEDD   20 CE E0             JSR LE0CE
CEE0   85 98                STA $98
CEE2   60                   RTS
CEE3   20 C3 CE   LCEE3     JSR LCEC3
CEE6   A6 99      LCEE6     LDX $99
CEE8   BD 85 02             LDA $0285,X
CEEB   29 01                AND #$01
CEED   85 78                STA $78
CEEF   BD 87 02             LDA $0287,X
CEF2   85 7A                STA $7A
CEF4   BD 86 02             LDA $0286,X
CEF7   85 79                STA $79
CEF9   20 B0 D6             JSR LD6B0
CEFC   60                   RTS
CEFD   20 1B CF   LCEFD     JSR LCF1B
CF00   20 5D CF             JSR LCF5D
CF03   A5 89                LDA $89
CF05   85 94                STA $94
CF07   20 60 CF             JSR LCF60
CF0A   E6 94                INC $94
CF0C   E6 94                INC $94
CF0E   A5 84                LDA $84
CF10   85 92                STA $92
CF12   A5 89                LDA $89
CF14   0A                   ASL A
CF15   18                   CLC
CF16   69 10                ADC #$10
CF18   85 93                STA $93
CF1A   60                   RTS
CF1B   20 8F CF   LCF1B     JSR LCF8F
CF1E   85 8B                STA $8B
CF20   A6 7B                LDX $7B
CF22   B5 B6                LDA $B6,X
CF24   85 89                STA $89
CF26   B5 BC                LDA $BC,X
CF28   85 8A                STA $8A
CF2A   D0 04                BNE LCF30
CF2C   A5 89                LDA $89
CF2E   F0 0B                BEQ LCF3B
CF30   A5 89      LCF30     LDA $89
CF32   38                   SEC
CF33   E9 01                SBC #$01
CF35   85 89                STA $89
CF37   B0 02                BCS LCF3B
CF39   C6 8A                DEC $8A
CF3B   B5 C8      LCF3B     LDA $C8,X
CF3D   85 6E                STA $6E
CF3F   46 6E      LCF3F     LSR $6E
CF41   90 03                BCC LCF46
CF43   20 A3 CF             JSR LCFA3
CF46   20 9B CF   LCF46     JSR LCF9B
CF49   A5 6E                LDA $6E
CF4B   D0 F2                BNE LCF3F
CF4D   A5 91                LDA $91
CF4F   18                   CLC
CF50   65 84                ADC $84
CF52   85 84                STA $84
CF54   90 06                BCC LCF5C
CF56   E6 85                INC $85
CF58   D0 02                BNE LCF5C
CF5A   E6 86                INC $86
CF5C   60         LCF5C     RTS
CF5D   A9 FE      LCF5D     LDA #$FE
CF5F   2C A9 78             BIT $78A9
CF62   2C A9 06             BIT $06A9
CF65   85 6E                STA $6E
CF67   A9 00                LDA #$00
CF69   85 89                STA $89
CF6B   85 8A                STA $8A
CF6D   A2 18                LDX #$18
CF6F   06 84      LCF6F     ASL $84
CF71   26 85                ROL $85
CF73   26 86                ROL $86
CF75   26 89                ROL $89
CF77   26 8A                ROL $8A
CF79   A5 89                LDA $89
CF7B   38                   SEC
CF7C   E5 6E                SBC $6E
CF7E   A8                   TAY
CF7F   A5 8A                LDA $8A
CF81   E9 00                SBC #$00
CF83   90 06                BCC LCF8B
CF85   E6 84                INC $84
CF87   85 8A                STA $8A
CF89   84 89                STY $89
CF8B   CA         LCF8B     DEX
CF8C   D0 E1                BNE LCF6F
CF8E   60                   RTS
CF8F   A9 00      LCF8F     LDA #$00
CF91   85 84                STA $84
CF93   85 85                STA $85
CF95   85 86                STA $86
CF97   60                   RTS
CF98   20 9B CF             JSR LCF9B
CF9B   18         LCF9B     CLC
CF9C   26 89                ROL $89
CF9E   26 8A                ROL $8A
CFA0   26 8B                ROL $8B
CFA2   60                   RTS
CFA3   18         LCFA3     CLC
CFA4   A2 FD                LDX #$FD
CFA6   B5 87      LCFA6     LDA $87,X
CFA8   75 8C                ADC $8C,X
CFAA   95 87                STA $87,X
CFAC   E8                   INX
CFAD   D0 F7                BNE LCFA6
CFAF   60                   RTS
CFB0   A2 00      LCFB0     LDX #$00
CFB2   8A         LCFB2     TXA
CFB3   95 D4                STA $D4,X
CFB5   E8                   INX
CFB6   E0 04                CPX #$04
CFB8   D0 F8                BNE LCFB2
CFBA   A9 06                LDA #$06
CFBC   95 D4                STA $D4,X
CFBE   60                   RTS
CFBF   A0 04      LCFBF     LDY #$04
CFC1   A6 7B                LDX $7B
CFC3   B9 D4 00   LCFC3     LDA $00D4,Y
CFC6   96 D4                STX $D4,Y
CFC8   C5 7B                CMP $7B
CFCA   F0 07                BEQ LCFD3
CFCC   88                   DEY
CFCD   30 E1                BMI LCFB0
CFCF   AA                   TAX
CFD0   4C C3 CF             JMP LCFC3
CFD3   60         LCFD3     RTS
CFD4   20 BF CF   LCFD4     JSR LCFBF
CFD7   A6 7B                LDX $7B
CFD9   B5 A8                LDA $A8,X
CFDB   30 02                BMI LCFDF
CFDD   B5 AF                LDA $AF,X
CFDF   C9 FF      LCFDF     CMP #$FF
CFE1   F0 18                BEQ LCFFB
CFE3   B5 A8                LDA $A8,X
CFE5   49 80                EOR #$80
CFE7   95 A8                STA $A8,X
CFE9   48                   PHA
CFEA   B5 AF                LDA $AF,X
CFEC   49 80                EOR #$80
CFEE   95 AF                STA $AF,X
CFF0   A8                   TAY
CFF1   68                   PLA
CFF2   10 01                BPL LCFF5
CFF4   98                   TYA
CFF5   29 BF      LCFF5     AND #$BF
CFF7   AA                   TAX
CFF8   4C EC D6             JMP LD6EC
CFFB   B5 A8      LCFFB     LDA $A8,X
CFFD   10 02                BPL LD001
CFFF   B5 AF                LDA $AF,X
D001   29 BF      LD001     AND #$BF
D003   A8                   TAY
D004   B9 5B 02             LDA $025B,Y
D007   29 01                AND #$01
D009   85 78                STA $78
D00B   20 E4 D3             JSR LD3E4
D00E   10 05                BPL LD015
D010   A9 70                LDA #$70
D012   4C B2 C2             JMP LC2B2
D015   A6 7B      LD015     LDX $7B
D017   09 80                ORA #$80
D019   B4 A8                LDY $A8,X
D01B   10 04                BPL LD021
D01D   95 A8                STA $A8,X
D01F   30 02                BMI LD023
D021   95 AF      LD021     STA $AF,X
D023   A5 79      LD023     LDA $79
D025   48                   PHA
D026   A5 7A                LDA $7A
D028   48                   PHA
D029   A9 01                LDA #$01
D02B   85 70                STA $70
D02D   B5 A8                LDA $A8,X
D02F   10 02                BPL LD033
D031   B5 AF                LDA $AF,X
D033   29 BF      LD033     AND #$BF
D035   A8                   TAY
D036   B9 23 F1             LDA $F123,Y
D039   85 71                STA $71
D03B   A0 00                LDY #$00
D03D   B1 70                LDA ($70),Y
D03F   85 7A                STA $7A
D041   A9 00                LDA #$00
D043   85 70                STA $70
D045   B5 A8                LDA $A8,X
D047   10 02                BPL LD04B
D049   B5 AF                LDA $AF,X
D04B   29 BF      LD04B     AND #$BF
D04D   A8                   TAY
D04E   B9 23 F1             LDA $F123,Y
D051   85 71                STA $71
D053   A0 00                LDY #$00
D055   B1 70                LDA ($70),Y
D057   85 79                STA $79
D059   F0 2A                BEQ LD085
D05B   20 35 D2             JSR LD235
D05E   F0 0B                BEQ LD06B
D060   20 E6 DE             JSR LDEE6
D063   D0 06                BNE LD06B
D065   20 AB D0             JSR LD0AB
D068   4C 7C D0             JMP LD07C
D06B   A6 7B      LD06B     LDX $7B
D06D   B5 A8                LDA $A8,X
D06F   49 80                EOR #$80
D071   95 A8                STA $A8,X
D073   B5 AF                LDA $AF,X
D075   49 80                EOR #$80
D077   95 AF                STA $AF,X
D079   20 92 DF             JSR LDF92
D07C   68         LD07C     PLA
D07D   85 7A                STA $7A
D07F   68                   PLA
D080   85 79                STA $79
D082   4C 8E D0             JMP LD08E
D085   68         LD085     PLA
D086   85 7A                STA $7A
D088   68                   PLA
D089   85 79                STA $79
D08B   20 AB D0             JSR LD0AB
D08E   20 CE E0   LD08E     JSR LE0CE
D091   AA                   TAX
D092   4C EC D6             JMP LD6EC
D095   A9 70      LD095     LDA #$70
D097   4C B2 C2             JMP LC2B2
D09A   20 BF CF   LD09A     JSR LCFBF
D09D   20 F2 E0             JSR LE0F2
D0A0   D0 08                BNE LD0AA
D0A2   20 E4 D3             JSR LD3E4
D0A5   30 EE                BMI LD095
D0A7   20 FD E0             JSR LE0FD
D0AA   60         LD0AA     RTS
D0AB   A6 7B      LD0AB     LDX $7B
D0AD   B5 A8                LDA $A8,X
D0AF   49 80                EOR #$80
D0B1   95 A8                STA $A8,X
D0B3   B5 AF                LDA $AF,X
D0B5   49 80                EOR #$80
D0B7   95 AF                STA $AF,X
D0B9   60                   RTS
D0BA   A2 12      LD0BA     LDX #$12
D0BC   86 7C                STX $7C
D0BE   20 17 D2             JSR LD217
D0C1   20 35 D2             JSR LD235
D0C4   90 05                BCC LD0CB
D0C6   A9 20                LDA #$20
D0C8   20 D8 DE             JSR LDED8
D0CB   A5 7C      LD0CB     LDA $7C
D0CD   C9 0F                CMP #$0F
D0CF   F0 23                BEQ LD0F4
D0D1   D0 08                BNE LD0DB
D0D3   A5 7D      LD0D3     LDA $7D
D0D5   29 8F                AND #$8F
D0D7   C9 0F                CMP #$0F
D0D9   B0 19                BCS LD0F4
D0DB   20 35 D2   LD0DB     JSR LD235
D0DE   B0 05                BCS LD0E5
D0E0   A5 7E                LDA $7E
D0E2   4C F3 D2             JMP LD2F3
D0E5   D0 03      LD0E5     BNE LD0EA
D0E7   4C E6 E1             JMP LE1E6
D0EA   A5 7E      LD0EA     LDA $7E
D0EC   20 0D D1             JSR LD10D
D0EF   A4 7B                LDY $7B
D0F1   4C 41 D5             JMP LD541
D0F4   A9 04      LD0F4     LDA #$04
D0F6   85 7B                STA $7B
D0F8   20 3B D6             JSR LD63B
D0FB   C9 2A                CMP #$2A
D0FD   F0 05                BEQ LD104
D0FF   A5 7E                LDA $7E
D101   20 0D D1             JSR LD10D
D104   A5 95      LD104     LDA $95
D106   F0 01                BEQ LD109
D108   60                   RTS
D109   EE 55 02   LD109     INC $0255
D10C   60                   RTS
D10D   48         LD10D     PHA
D10E   20 CE E0             JSR LE0CE
D111   10 06                BPL LD119
D113   68                   PLA
D114   A9 61                LDA #$61
D116   4C B2 C2             JMP LC2B2
D119   0A         LD119     ASL A
D11A   AA                   TAX
D11B   68                   PLA
D11C   81 9A                STA ($9A,X)
D11E   F6 9A                INC $9A,X
D120   60                   RTS
D121   20 BB C2             JSR LC2BB
D124   20 5E D1             JSR LD15E
D127   4C 7E C2             JMP LC27E
D12A   20 7A EF   LD12A     JSR LEF7A
D12D   A8                   TAY
D12E   B6 A8                LDX $A8,Y
D130   E0 FF                CPX #$FF
D132   D0 14                BNE LD148
D134   48                   PHA
D135   20 E4 D3             JSR LD3E4
D138   AA                   TAX
D139   10 05                BPL LD140
D13B   A9 70                LDA #$70
D13D   20 84 E7             JSR LE784
D140   68         LD140     PLA
D141   A8                   TAY
D142   8A                   TXA
D143   09 80                ORA #$80
D145   99 A8 00             STA $00A8,Y
D148   8A         LD148     TXA
D149   29 0F                AND #$0F
D14B   85 98                STA $98
D14D   A2 00                LDX #$00
D14F   86 7A                STX $7A
D151   AE C3 F0             LDX $F0C3
D154   86 79                STX $79
D156   20 08 D8             JSR LD808
D159   A9 B0                LDA #$B0
D15B   4C DF D6             JMP LD6DF
D15E   20 3C EF   LD15E     JSR LEF3C
D161   20 65 D4             JSR LD465
D164   20 2A D1             JSR LD12A
D167   A6 78                LDX $78
D169   A9 00                LDA #$00
D16B   9D 51 02             STA $0251,X
D16E   20 D9 D6             JSR LD6D9
D171   A5 98                LDA $98
D173   0A                   ASL A
D174   AA                   TAX
D175   A9 02                LDA #$02
D177   95 9A                STA $9A,X
D179   A1 9A                LDA ($9A,X)
D17B   A6 78                LDX $78
D17D   95 5D                STA $5D,X
D17F   A9 00                LDA #$00
D181   95 22                STA $22,X
D183   95 5F                STA $5F,X
D185   20 A5 ED   LD185     JSR LEDA5
D188   A0 04                LDY #$04
D18A   A9 00                LDA #$00
D18C   AA                   TAX
D18D   18         LD18D     CLC
D18E   71 6C                ADC ($6C),Y
D190   90 01                BCC LD193
D192   E8                   INX
D193   C8         LD193     INY
D194   C8                   INY
D195   C8                   INY
D196   C8                   INY
D197   C0 48                CPY #$48
D199   F0 F8                BEQ LD193
D19B   C0 90                CPY #$90
D19D   D0 EE                BNE LD18D
D19F   48                   PHA
D1A0   8A                   TXA
D1A1   A6 78                LDX $78
D1A3   9D FC 02             STA $02FC,X
D1A6   68                   PLA
D1A7   9D FA 02             STA $02FA,X
D1AA   60                   RTS
D1AB   20 05 D8   LD1AB     JSR LD805
D1AE   20 D3 D1             JSR LD1D3
D1B1   20 EC D6             JSR LD6EC
D1B4   20 47 D2             JSR LD247
D1B7   85 79                STA $79
D1B9   20 47 D2             JSR LD247
D1BC   85 7A                STA $7A
D1BE   60                   RTS
D1BF   20 AB D1   LD1BF     JSR LD1AB
D1C2   A5 79                LDA $79
D1C4   D0 01                BNE LD1C7
D1C6   60                   RTS
D1C7   20 D4 CF   LD1C7     JSR LCFD4
D1CA   20 05 D8             JSR LD805
D1CD   20 D3 D1             JSR LD1D3
D1D0   4C D4 CF             JMP LCFD4
D1D3   A9 80      LD1D3     LDA #$80
D1D5   D0 02                BNE LD1D9
D1D7   A9 90      LD1D7     LDA #$90
D1D9   8D 4D 02   LD1D9     STA $024D
D1DC   20 CE E0             JSR LE0CE
D1DF   AA                   TAX
D1E0   20 59 D6             JSR LD659
D1E3   8A                   TXA
D1E4   48                   PHA
D1E5   0A                   ASL A
D1E6   AA                   TAX
D1E7   A9 00                LDA #$00
D1E9   95 9A                STA $9A,X
D1EB   20 35 D2             JSR LD235
D1EE   C9 04                CMP #$04
D1F0   B0 06                BCS LD1F8
D1F2   F6 B6                INC $B6,X
D1F4   D0 02                BNE LD1F8
D1F6   F6 BC                INC $BC,X
D1F8   68         LD1F8     PLA
D1F9   AA                   TAX
D1FA   60                   RTS
D1FB   A5 7C      LD1FB     LDA $7C
D1FD   C9 13                CMP #$13
D1FF   90 02                BCC LD203
D201   29 0F                AND #$0F
D203   C9 0F      LD203     CMP #$0F
D205   D0 02                BNE LD209
D207   A9 10                LDA #$10
D209   AA         LD209     TAX
D20A   38                   SEC
D20B   BD 2B 02             LDA $022B,X
D20E   30 06                BMI LD216
D210   29 0F                AND #$0F
D212   85 7B                STA $7B
D214   AA                   TAX
D215   18                   CLC
D216   60         LD216     RTS
D217   A5 7C      LD217     LDA $7C
D219   C9 13                CMP #$13
D21B   90 02                BCC LD21F
D21D   29 0F                AND #$0F
D21F   AA         LD21F     TAX
D220   BD 2B 02             LDA $022B,X
D223   A8                   TAY
D224   0A                   ASL A
D225   90 0A                BCC LD231
D227   30 0A                BMI LD233
D229   98         LD229     TYA
D22A   29 0F                AND #$0F
D22C   85 7B                STA $7B
D22E   AA                   TAX
D22F   18                   CLC
D230   60                   RTS
D231   30 F6      LD231     BMI LD229
D233   38         LD233     SEC
D234   60                   RTS
D235   A6 7B      LD235     LDX $7B
D237   B5 ED                LDA $ED,X
D239   4A                   LSR A
D23A   29 07                AND #$07
D23C   C9 04                CMP #$04
D23E   60                   RTS
D23F   20 CE E0   LD23F     JSR LE0CE
D242   0A                   ASL A
D243   AA                   TAX
D244   A4 7B                LDY $7B
D246   60                   RTS
D247   A6 7B      LD247     LDX $7B
D249   B5 A8                LDA $A8,X
D24B   10 02                BPL LD24F
D24D   B5 AF                LDA $AF,X
D24F   29 BF      LD24F     AND #$BF
D251   0A                   ASL A
D252   AA                   TAX
D253   A4 7B                LDY $7B
D255   B9 44 02             LDA $0244,Y
D258   F0 12                BEQ LD26C
D25A   A1 9A                LDA ($9A,X)
D25C   48                   PHA
D25D   B5 9A                LDA $9A,X
D25F   D9 44 02             CMP $0244,Y
D262   D0 04                BNE LD268
D264   A9 FF                LDA #$FF
D266   95 9A                STA $9A,X
D268   68         LD268     PLA
D269   F6 9A                INC $9A,X
D26B   60                   RTS
D26C   A1 9A      LD26C     LDA ($9A,X)
D26E   F6 9A                INC $9A,X
D270   60                   RTS
D271   20 47 D2   LD271     JSR LD247
D274   D0 71                BNE LD2E7
D276   85 7E                STA $7E
D278   B9 44 02             LDA $0244,Y
D27B   F0 08                BEQ LD285
D27D   A9 80                LDA #$80
D27F   99 F3 00             STA $00F3,Y
D282   A5 7E                LDA $7E
D284   60                   RTS
D285   20 D4 CF   LD285     JSR LCFD4
D288   A9 00                LDA #$00
D28A   85 6E                STA $6E
D28C   A6 7B                LDX $7B
D28E   B5 A8                LDA $A8,X
D290   10 02                BPL LD294
D292   B5 AF                LDA $AF,X
D294   29 BF      LD294     AND #$BF
D296   0A                   ASL A
D297   AA                   TAX
D298   B5 9B                LDA $9B,X
D29A   85 8E                STA $8E
D29C   A5 6E                LDA $6E
D29E   95 9A                STA $9A,X
D2A0   85 8D                STA $8D
D2A2   20 47 D2             JSR LD247
D2A5   C9 00                CMP #$00
D2A7   F0 3F                BEQ LD2E8
D2A9   85 79                STA $79
D2AB   20 47 D2             JSR LD247
D2AE   85 7A                STA $7A
D2B0   20 D4 CF             JSR LCFD4
D2B3   A6 7B                LDX $7B
D2B5   B5 A8                LDA $A8,X
D2B7   10 02                BPL LD2BB
D2B9   B5 AF                LDA $AF,X
D2BB   29 BF      LD2BB     AND #$BF
D2BD   AA                   TAX
D2BE   BD 5B 02             LDA $025B,X
D2C1   29 01                AND #$01
D2C3   85 78                STA $78
D2C5   A6 7B                LDX $7B
D2C7   B5 A8                LDA $A8,X
D2C9   10 02                BPL LD2CD
D2CB   B5 AF                LDA $AF,X
D2CD   29 BF      LD2CD     AND #$BF
D2CF   0A                   ASL A
D2D0   A8                   TAY
D2D1   A5 79                LDA $79
D2D3   99 08 00             STA $0008,Y
D2D6   A5 7A                LDA $7A
D2D8   99 09 00             STA $0009,Y
D2DB   A5 78                LDA $78
D2DD   0A                   ASL A
D2DE   AA                   TAX
D2DF   20 D3 D1             JSR LD1D3
D2E2   20 D4 CF             JSR LCFD4
D2E5   A5 7E                LDA $7E
D2E7   60         LD2E7     RTS
D2E8   20 47 D2   LD2E8     JSR LD247
D2EB   A4 7B                LDY $7B
D2ED   99 44 02             STA $0244,Y
D2F0   A5 7E                LDA $7E
D2F2   60                   RTS
D2F3   20 0D D1   LD2F3     JSR LD10D
D2F6   F0 01                BEQ LD2F9
D2F8   60                   RTS
D2F9   20 29 D3   LD2F9     JSR LD329
D2FC   20 89 EF             JSR LEF89
D2FF   A9 00                LDA #$00
D301   20 1B D6             JSR LD61B
D304   A5 79                LDA $79
D306   20 0D D1             JSR LD10D
D309   A5 7A                LDA $7A
D30B   20 0D D1             JSR LD10D
D30E   20 D7 D1             JSR LD1D7
D311   20 D4 CF             JSR LCFD4
D314   20 05 D8             JSR LD805
D317   A9 02                LDA #$02
D319   4C 1B D6             JMP LD61B
D31C   85 6E      LD31C     STA $6E
D31E   20 3B D6             JSR LD63B
D321   18                   CLC
D322   65 6E                ADC $6E
D324   95 9A                STA $9A,X
D326   85 8D                STA $8D
D328   60                   RTS
D329   20 CE E0   LD329     JSR LE0CE
D32C   AA                   TAX
D32D   BD 5B 02             LDA $025B,X
D330   29 01                AND #$01
D332   85 78                STA $78
D334   60                   RTS
D335   38         LD335     SEC
D336   B0 01                BCS LD339
D338   18         LD338     CLC
D339   08         LD339     PHP
D33A   85 6E                STA $6E
D33C   20 7D D3             JSR LD37D
D33F   20 D1 D4             JSR LD4D1
D342   85 7B                STA $7B
D344   A6 7C                LDX $7C
D346   28                   PLP
D347   90 02                BCC LD34B
D349   09 80                ORA #$80
D34B   9D 2B 02   LD34B     STA $022B,X
D34E   29 3F                AND #$3F
D350   A8                   TAY
D351   A9 FF                LDA #$FF
D353   99 A8 00             STA $00A8,Y
D356   99 AF 00             STA $00AF,Y
D359   99 CE 00             STA $00CE,Y
D35C   C6 6E                DEC $6E
D35E   30 1C                BMI LD37C
D360   20 E4 D3             JSR LD3E4
D363   10 08                BPL LD36D
D365   20 B0 D3   LD365     JSR LD3B0
D368   A9 70                LDA #$70
D36A   4C B2 C2             JMP LC2B2
D36D   99 A8 00   LD36D     STA $00A8,Y
D370   C6 6E                DEC $6E
D372   30 08                BMI LD37C
D374   20 E4 D3             JSR LD3E4
D377   30 EC                BMI LD365
D379   99 AF 00             STA $00AF,Y
D37C   60         LD37C     RTS
D37D   A5 7C      LD37D     LDA $7C
D37F   C9 0F                CMP #$0F
D381   D0 01                BNE LD384
D383   60                   RTS
D384   A6 7C      LD384     LDX $7C
D386   BD 2B 02             LDA $022B,X
D389   C9 FF                CMP #$FF
D38B   F0 22                BEQ LD3AF
D38D   29 3F                AND #$3F
D38F   85 7B                STA $7B
D391   A9 FF                LDA #$FF
D393   9D 2B 02             STA $022B,X
D396   A6 7B                LDX $7B
D398   A9 00                LDA #$00
D39A   95 F3                STA $F3,X
D39C   20 B0 D3             JSR LD3B0
D39F   A6 7B                LDX $7B
D3A1   A9 01                LDA #$01
D3A3   CA         LD3A3     DEX
D3A4   30 03                BMI LD3A9
D3A6   0A                   ASL A
D3A7   D0 FA                BNE LD3A3
D3A9   0D 56 02   LD3A9     ORA $0256
D3AC   8D 56 02             STA $0256
D3AF   60         LD3AF     RTS
D3B0   A6 7B      LD3B0     LDX $7B
D3B2   B5 A8                LDA $A8,X
D3B4   C9 FF                CMP #$FF
D3B6   F0 09                BEQ LD3C1
D3B8   48                   PHA
D3B9   A9 FF                LDA #$FF
D3BB   95 A8                STA $A8,X
D3BD   68                   PLA
D3BE   20 45 D4             JSR LD445
D3C1   A6 7B      LD3C1     LDX $7B
D3C3   B5 AF                LDA $AF,X
D3C5   C9 FF                CMP #$FF
D3C7   F0 09                BEQ LD3D2
D3C9   48                   PHA
D3CA   A9 FF                LDA #$FF
D3CC   95 AF                STA $AF,X
D3CE   68                   PLA
D3CF   20 45 D4             JSR LD445
D3D2   A6 7B      LD3D2     LDX $7B
D3D4   B5 CE                LDA $CE,X
D3D6   C9 FF                CMP #$FF
D3D8   F0 09                BEQ LD3E3
D3DA   48                   PHA
D3DB   A9 FF                LDA #$FF
D3DD   95 CE                STA $CE,X
D3DF   68                   PLA
D3E0   20 45 D4             JSR LD445
D3E3   60         LD3E3     RTS
D3E4   98         LD3E4     TYA
D3E5   48                   PHA
D3E6   A0 01                LDY #$01
D3E8   20 0C D4             JSR LD40C
D3EB   10 0C                BPL LD3F9
D3ED   88                   DEY
D3EE   20 0C D4             JSR LD40C
D3F1   10 06                BPL LD3F9
D3F3   20 8B D4             JSR LD48B
D3F6   AA                   TAX
D3F7   30 0F                BMI LD408
D3F9   A5 78      LD3F9     LDA $78
D3FB   95 02                STA $02,X
D3FD   9D 5B 02             STA $025B,X
D400   8A                   TXA
D401   0A                   ASL A
D402   A8                   TAY
D403   A9 02                LDA #$02
D405   99 9A 00             STA $009A,Y
D408   68         LD408     PLA
D409   A8                   TAY
D40A   8A                   TXA
D40B   60                   RTS
D40C   A2 07      LD40C     LDX #$07
D40E   B9 4F 02   LD40E     LDA $024F,Y
D411   3D 54 EE             AND $EE54,X
D414   F0 04                BEQ LD41A
D416   CA                   DEX
D417   10 F5                BPL LD40E
D419   60                   RTS
D41A   B9 4F 02   LD41A     LDA $024F,Y
D41D   5D 54 EE             EOR $EE54,X
D420   99 4F 02             STA $024F,Y
D423   8A                   TXA
D424   88                   DEY
D425   30 03                BMI LD42A
D427   18                   CLC
D428   69 08                ADC #$08
D42A   AA         LD42A     TAX
D42B   60         LD42B     RTS
D42C   A6 7B      LD42C     LDX $7B
D42E   B5 A8                LDA $A8,X
D430   30 09                BMI LD43B
D432   8A                   TXA
D433   18                   CLC
D434   69 07                ADC #$07
D436   AA                   TAX
D437   B5 A8                LDA $A8,X
D439   10 F0                BPL LD42B
D43B   C9 FF      LD43B     CMP #$FF
D43D   F0 EC                BEQ LD42B
D43F   48                   PHA
D440   A9 FF                LDA #$FF
D442   95 A8                STA $A8,X
D444   68                   PLA
D445   29 0F      LD445     AND #$0F
D447   A8                   TAY
D448   C8                   INY
D449   A2 10                LDX #$10
D44B   6E 50 02   LD44B     ROR $0250
D44E   6E 4F 02             ROR $024F
D451   88                   DEY
D452   D0 01                BNE LD455
D454   18                   CLC
D455   CA         LD455     DEX
D456   10 F3                BPL LD44B
D458   60                   RTS
D459   A9 0E      LD459     LDA #$0E
D45B   85 7C                STA $7C
D45D   20 7D D3   LD45D     JSR LD37D
D460   C6 7C                DEC $7C
D462   D0 F9                BNE LD45D
D464   60                   RTS
D465   A9 0E      LD465     LDA #$0E
D467   85 7C                STA $7C
D469   A6 7C      LD469     LDX $7C
D46B   BD 2B 02             LDA $022B,X
D46E   C9 FF                CMP #$FF
D470   F0 14                BEQ LD486
D472   29 3F                AND #$3F
D474   85 7B                STA $7B
D476   20 CE E0             JSR LE0CE
D479   AA                   TAX
D47A   BD 5B 02             LDA $025B,X
D47D   29 01                AND #$01
D47F   C5 78                CMP $78
D481   D0 03                BNE LD486
D483   20 7D D3             JSR LD37D
D486   C6 7C      LD486     DEC $7C
D488   10 DF                BPL LD469
D48A   60                   RTS
D48B   A5 6E      LD48B     LDA $6E
D48D   48                   PHA
D48E   A0 00                LDY #$00
D490   B6 D4      LD490     LDX $D4,Y
D492   B5 A8                LDA $A8,X
D494   10 04                BPL LD49A
D496   C9 FF                CMP #$FF
D498   D0 16                BNE LD4B0
D49A   8A         LD49A     TXA
D49B   18                   CLC
D49C   69 07                ADC #$07
D49E   AA                   TAX
D49F   B5 A8                LDA $A8,X
D4A1   10 04                BPL LD4A7
D4A3   C9 FF                CMP #$FF
D4A5   D0 09                BNE LD4B0
D4A7   C8         LD4A7     INY
D4A8   C0 05                CPY #$05
D4AA   90 E4                BCC LD490
D4AC   A2 FF                LDX #$FF
D4AE   D0 1C                BNE LD4CC
D4B0   86 6E      LD4B0     STX $6E
D4B2   29 3F                AND #$3F
D4B4   AA                   TAX
D4B5   B5 02      LD4B5     LDA $02,X
D4B7   30 FC                BMI LD4B5
D4B9   C9 02                CMP #$02
D4BB   90 08                BCC LD4C5
D4BD   A6 6E                LDX $6E
D4BF   E0 07                CPX #$07
D4C1   90 D7                BCC LD49A
D4C3   B0 E2                BCS LD4A7
D4C5   A4 6E      LD4C5     LDY $6E
D4C7   A9 FF                LDA #$FF
D4C9   99 A8 00             STA $00A8,Y
D4CC   68         LD4CC     PLA
D4CD   85 6E                STA $6E
D4CF   8A                   TXA
D4D0   60                   RTS
D4D1   A0 00      LD4D1     LDY #$00
D4D3   A9 01                LDA #$01
D4D5   2C 56 02   LD4D5     BIT $0256
D4D8   D0 09                BNE LD4E3
D4DA   C8                   INY
D4DB   0A                   ASL A
D4DC   D0 F7                BNE LD4D5
D4DE   A9 70                LDA #$70
D4E0   4C B2 C2             JMP LC2B2
D4E3   49 FF      LD4E3     EOR #$FF
D4E5   2D 56 02             AND $0256
D4E8   8D 56 02             STA $0256
D4EB   98                   TYA
D4EC   60                   RTS
D4ED   20 FB D1   LD4ED     JSR LD1FB
D4F0   20 F9 D4             JSR LD4F9
D4F3   A6 7B                LDX $7B
D4F5   BD 3E 02             LDA $023E,X
D4F8   60                   RTS
D4F9   A6 7B      LD4F9     LDX $7B
D4FB   B5 ED                LDA $ED,X
D4FD   4A                   LSR A
D4FE   29 07                AND #$07
D500   C9 04                CMP #$04
D502   D0 03                BNE LD507
D504   4C 5B E2             JMP LE25B
D507   A5 7C      LD507     LDA $7C
D509   C9 0F                CMP #$0F
D50B   F0 5A                BEQ LD567
D50D   B5 F3                LDA $F3,X
D50F   29 08                AND #$08
D511   D0 13                BNE LD526
D513   20 35 D2             JSR LD235
D516   C9 07                CMP #$07
D518   D0 07                BNE LD521
D51A   A9 89                LDA #$89
D51C   95 F3                STA $F3,X
D51E   4C 31 D5             JMP LD531
D521   A9 00      LD521     LDA #$00
D523   95 F3                STA $F3,X
D525   60                   RTS
D526   A5 7C      LD526     LDA $7C
D528   F0 32                BEQ LD55C
D52A   20 35 D2             JSR LD235
D52D   C9 04                CMP #$04
D52F   90 22                BCC LD553
D531   20 3F D2   LD531     JSR LD23F
D534   B5 9A                LDA $9A,X
D536   D9 44 02             CMP $0244,Y
D539   D0 04                BNE LD53F
D53B   A9 00                LDA #$00
D53D   95 9A                STA $9A,X
D53F   F6 9A      LD53F     INC $9A,X
D541   A1 9A      LD541     LDA ($9A,X)
D543   99 3E 02             STA $023E,Y
D546   B5 9A                LDA $9A,X
D548   D9 44 02             CMP $0244,Y
D54B   D0 05                BNE LD552
D54D   A9 81                LDA #$81
D54F   99 F3 00             STA $00F3,Y
D552   60         LD552     RTS
D553   20 71 D2   LD553     JSR LD271
D556   A6 7B      LD556     LDX $7B
D558   9D 3E 02             STA $023E,X
D55B   60                   RTS
D55C   AD 54 02   LD55C     LDA $0254
D55F   F0 F2                BEQ LD553
D561   20 D4 EB             JSR LEBD4
D564   4C 56 D5             JMP LD556
D567   20 3B D6   LD567     JSR LD63B
D56A   C9 D4                CMP #$D4
D56C   D0 18                BNE LD586
D56E   A5 8E                LDA $8E
D570   C9 02                CMP #$02
D572   D0 12                BNE LD586
D574   A9 0D                LDA #$0D
D576   85 7E                STA $7E
D578   20 F0 F3             JSR LF3F0
D57B   A9 00                LDA #$00
D57D   20 00 E8             JSR LE800
D580   C6 A6                DEC $A6
D582   A9 80                LDA #$80
D584   D0 12                BNE LD598
D586   20 47 D2   LD586     JSR LD247
D589   85 7E                STA $7E
D58B   D0 09                BNE LD596
D58D   A9 D4      LD58D     LDA #$D4
D58F   20 1B D6             JSR LD61B
D592   A9 02                LDA #$02
D594   95 9B                STA $9B,X
D596   A9 88      LD596     LDA #$88
D598   85 F8      LD598     STA $F8
D59A   A5 7E                LDA $7E
D59C   8D 43 02             STA $0243
D59F   60                   RTS
D5A0   20 CE E0   LD5A0     JSR LE0CE
D5A3   0A                   ASL A
D5A4   AA                   TAX
D5A5   A9 00                LDA #$00
D5A7   95 9A                STA $9A,X
D5A9   A1 9A                LDA ($9A,X)
D5AB   F0 05                BEQ LD5B2
D5AD   D6 9A                DEC $9A,X
D5AF   4C 71 D2             JMP LD271
D5B2   60         LD5B2     RTS
D5B3   A9 80      LD5B3     LDA #$80
D5B5   D0 02                BNE LD5B9
D5B7   A9 90      LD5B7     LDA #$90
D5B9   05 78      LD5B9     ORA $78
D5BB   8D 4D 02             STA $024D
D5BE   A5 98                LDA $98
D5C0   20 08 D8             JSR LD808
D5C3   A6 98                LDX $98
D5C5   4C E6 D6             JMP LD6E6
D5C8   A9 01      LD5C8     LDA #$01
D5CA   8D 4A 02   LD5CA     STA $024A
D5CD   A9 11                LDA #$11
D5CF   85 7C                STA $7C
D5D1   20 7D DD             JSR LDD7D
D5D4   A9 02                LDA #$02
D5D6   4C 1B D6             JMP LD61B
D5D9   A9 12      LD5D9     LDA #$12
D5DB   85 7C                STA $7C
D5DD   4C 15 DE             JMP LDE15
D5E0   20 76 DF   LD5E0     JSR LDF76
D5E3   A9 01                LDA #$01
D5E5   85 6E                STA $6E
D5E7   A5 68                LDA $68
D5E9   48                   PHA
D5EA   A9 03                LDA #$03
D5EC   85 68                STA $68
D5EE   20 98 EF             JSR LEF98
D5F1   68                   PLA
D5F2   85 68                STA $68
D5F4   A9 00                LDA #$00
D5F6   20 1B D6             JSR LD61B
D5F9   A5 79                LDA $79
D5FB   20 0D D1             JSR LD10D
D5FE   A5 7A                LDA $7A
D600   20 0D D1             JSR LD10D
D603   20 D7 D1             JSR LD1D7
D606   20 EC D6             JSR LD6EC
D609   A9 00                LDA #$00
D60B   20 1B D6             JSR LD61B
D60E   20 0D D1   LD60E     JSR LD10D
D611   D0 FB                BNE LD60E
D613   20 0D D1             JSR LD10D
D616   A9 FF                LDA #$FF
D618   4C 0D D1             JMP LD10D
D61B   85 6E      LD61B     STA $6E
D61D   20 CE E0             JSR LE0CE
D620   0A                   ASL A
D621   AA                   TAX
D622   B5 9B                LDA $9B,X
D624   85 8E                STA $8E
D626   A5 6E                LDA $6E
D628   95 9A                STA $9A,X
D62A   85 8D                STA $8D
D62C   60                   RTS
D62D   A9 11      LD62D     LDA #$11
D62F   85 7C                STA $7C
D631   20 7D D3             JSR LD37D
D634   A9 12                LDA #$12
D636   85 7C                STA $7C
D638   4C 7D D3             JMP LD37D
D63B   20 CE E0   LD63B     JSR LE0CE
D63E   0A         LD63E     ASL A
D63F   AA                   TAX
D640   B5 9B                LDA $9B,X
D642   85 8E                STA $8E
D644   B5 9A                LDA $9A,X
D646   85 8D                STA $8D
D648   60                   RTS
D649   85 70      LD649     STA $70
D64B   20 CE E0             JSR LE0CE
D64E   AA                   TAX
D64F   BD 23 F1             LDA $F123,X
D652   85 71                STA $71
D654   A0 00                LDY #$00
D656   B1 70                LDA ($70),Y
D658   60                   RTS
D659   BD 5B 02   LD659     LDA $025B,X
D65C   29 01                AND #$01
D65E   0D 4D 02             ORA $024D
D661   48         LD661     PHA
D662   86 98                STX $98
D664   8A                   TXA
D665   0A                   ASL A
D666   AA                   TAX
D667   B5 09                LDA $09,X
D669   8D 4D 02             STA $024D
D66C   B5 08                LDA $08,X
D66E   F0 2B                BEQ LD69B
D670   CD 1A F1             CMP $F11A
D673   B0 26                BCS LD69B
D675   AA                   TAX
D676   68                   PLA
D677   48                   PHA
D678   29 F0                AND #$F0
D67A   C9 90                CMP #$90
D67C   D0 4D                BNE LD6CB
D67E   68                   PLA
D67F   48                   PHA
D680   4A                   LSR A
D681   B0 04                BCS LD687
D683   A5 5D                LDA $5D
D685   90 02                BCC LD689
D687   A5 5E      LD687     LDA $5E
D689   F0 05      LD689     BEQ LD690
D68B   CD 18 F1             CMP $F118
D68E   D0 33                BNE LD6C3
D690   8A         LD690     TXA
D691   20 B6 F0             JSR LF0B6
D694   CD 4D 02             CMP $024D
D697   F0 02                BEQ LD69B
D699   B0 30                BCS LD6CB
D69B   20 A3 D6   LD69B     JSR LD6A3
D69E   A9 66      LD69E     LDA #$66
D6A0   4C 81 E7             JMP LE781
D6A3   A5 98      LD6A3     LDA $98
D6A5   0A                   ASL A
D6A6   AA                   TAX
D6A7   B5 08                LDA $08,X
D6A9   85 79                STA $79
D6AB   B5 09                LDA $09,X
D6AD   85 7A                STA $7A
D6AF   60                   RTS
D6B0   A5 79      LD6B0     LDA $79
D6B2   F0 EA                BEQ LD69E
D6B4   CD 1A F1             CMP $F11A
D6B7   B0 E5                BCS LD69E
D6B9   20 B6 F0             JSR LF0B6
D6BC   C5 7A                CMP $7A
D6BE   F0 DE                BEQ LD69E
D6C0   90 DC                BCC LD69E
D6C2   60                   RTS
D6C3   20 A3 D6   LD6C3     JSR LD6A3
D6C6   A9 73                LDA #$73
D6C8   4C 81 E7             JMP LE781
D6CB   A6 98      LD6CB     LDX $98
D6CD   68                   PLA
D6CE   8D 4D 02             STA $024D
D6D1   9D 5B 02             STA $025B,X
D6D4   95 02                STA $02,X
D6D6   4C 19 D8             JMP LD819
D6D9   A9 80      LD6D9     LDA #$80
D6DB   D0 02                BNE LD6DF
D6DD   A9 90      LD6DD     LDA #$90
D6DF   05 78      LD6DF     ORA $78
D6E1   A6 98                LDX $98
D6E3   8D 4D 02   LD6E3     STA $024D
D6E6   AD 4D 02   LD6E6     LDA $024D
D6E9   20 61 D6             JSR LD661
D6EC   20 F9 D6   LD6EC     JSR LD6F9
D6EF   B0 FB                BCS LD6EC
D6F1   48                   PHA
D6F2   A9 00                LDA #$00
D6F4   8D 98 02             STA $0298
D6F7   68                   PLA
D6F8   60                   RTS
D6F9   B5 02      LD6F9     LDA $02,X
D6FB   C9 02                CMP #$02
D6FD   90 14                BCC LD713
D6FF   C9 08                CMP #$08
D701   F0 08                BEQ LD70B
D703   C9 0B                CMP #$0B
D705   F0 04                BEQ LD70B
D707   C9 0F                CMP #$0F
D709   D0 0A                BNE LD715
D70B   2C 98 02   LD70B     BIT $0298
D70E   30 03                BMI LD713
D710   4C 8A D7             JMP LD78A
D713   18         LD713     CLC
D714   60                   RTS
D715   98         LD715     TYA
D716   48                   PHA
D717   A5 78                LDA $78
D719   48                   PHA
D71A   BD 5B 02             LDA $025B,X
D71D   29 01                AND #$01
D71F   85 78                STA $78
D721   20 F7 F3             JSR LF3F7
D724   20 F0 D7             JSR LD7F0
D727   C9 02                CMP #$02
D729   B0 03                BCS LD72E
D72B   4C B7 D7             JMP LD7B7
D72E   BD 5B 02   LD72E     LDA $025B,X
D731   29 F0                AND #$F0
D733   48                   PHA
D734   C9 90                CMP #$90
D736   D0 07                BNE LD73F
D738   A5 78                LDA $78
D73A   09 B8                ORA #$B8
D73C   9D 5B 02             STA $025B,X
D73F   24 69      LD73F     BIT $69
D741   70 39                BVS LD77C
D743   A9 00                LDA #$00
D745   8D 99 02             STA $0299
D748   8D 9A 02             STA $029A
D74B   AC 99 02   LD74B     LDY $0299
D74E   AD 9A 02             LDA $029A
D751   38                   SEC
D752   F9 1E F1             SBC $F11E,Y
D755   8D 9A 02             STA $029A
D758   B9 1E F1             LDA $F11E,Y
D75B   20 C5 D7             JSR LD7C5
D75E   EE 99 02             INC $0299
D761   20 F0 D7             JSR LD7F0
D764   C9 02                CMP #$02
D766   90 08                BCC LD770
D768   AC 99 02             LDY $0299
D76B   B9 1E F1             LDA $F11E,Y
D76E   D0 DB                BNE LD74B
D770   AD 9A 02   LD770     LDA $029A
D773   20 C5 D7             JSR LD7C5
D776   B5 02                LDA $02,X
D778   C9 02                CMP #$02
D77A   90 2A                BCC LD7A6
D77C   24 69      LD77C     BIT $69
D77E   10 0F                BPL LD78F
D780   68         LD780     PLA
D781   C9 90                CMP #$90
D783   D0 05                BNE LD78A
D785   05 78                ORA $78
D787   9D 5B 02             STA $025B,X
D78A   B5 02      LD78A     LDA $02,X
D78C   20 46 E7             JSR LE746
D78F   68         LD78F     PLA
D790   2C 98 02             BIT $0298
D793   30 22                BMI LD7B7
D795   48                   PHA
D796   A9 C0                LDA #$C0
D798   05 78                ORA $78
D79A   95 02                STA $02,X
D79C   20 19 D8             JSR LD819
D79F   20 F0 D7             JSR LD7F0
D7A2   C9 02                CMP #$02
D7A4   B0 DA                BCS LD780
D7A6   68         LD7A6     PLA
D7A7   C9 90                CMP #$90
D7A9   D0 0C                BNE LD7B7
D7AB   05 78                ORA $78
D7AD   9D 5B 02             STA $025B,X
D7B0   20 F0 D7             JSR LD7F0
D7B3   C9 02                CMP #$02
D7B5   B0 D3                BCS LD78A
D7B7   68         LD7B7     PLA
D7B8   85 78                STA $78
D7BA   68                   PLA
D7BB   A8                   TAY
D7BC   B5 02                LDA $02,X
D7BE   48                   PHA
D7BF   20 F0 F3             JSR LF3F0
D7C2   68                   PLA
D7C3   18                   CLC
D7C4   60                   RTS
D7C5   C9 00      LD7C5     CMP #$00
D7C7   F0 18                BEQ LD7E1
D7C9   30 0C                BMI LD7D7
D7CB   A0 01      LD7CB     LDY #$01
D7CD   20 E2 D7             JSR LD7E2
D7D0   38                   SEC
D7D1   E9 01                SBC #$01
D7D3   D0 F6                BNE LD7CB
D7D5   F0 0A                BEQ LD7E1
D7D7   A0 FF      LD7D7     LDY #$FF
D7D9   20 E2 D7             JSR LD7E2
D7DC   18                   CLC
D7DD   69 01                ADC #$01
D7DF   D0 F6                BNE LD7D7
D7E1   60         LD7E1     RTS
D7E2   48         LD7E2     PHA
D7E3   98                   TYA
D7E4   85 54                STA $54
D7E6   C5 54      LD7E6     CMP $54
D7E8   F0 FC                BEQ LD7E6
D7EA   A9 00                LDA #$00
D7EC   85 54                STA $54
D7EE   68                   PLA
D7EF   60                   RTS
D7F0   A5 69      LD7F0     LDA $69
D7F2   29 3F                AND #$3F
D7F4   A8                   TAY
D7F5   BD 5B 02   LD7F5     LDA $025B,X
D7F8   95 02                STA $02,X
D7FA   20 19 D8             JSR LD819
D7FD   C9 02                CMP #$02
D7FF   90 03                BCC LD804
D801   88                   DEY
D802   D0 F1                BNE LD7F5
D804   60         LD804     RTS
D805   20 CE E0   LD805     JSR LE0CE
D808   0A         LD808     ASL A
D809   A8                   TAY
D80A   A5 79                LDA $79
D80C   99 08 00             STA $0008,Y
D80F   A5 7A                LDA $7A
D811   99 09 00             STA $0009,Y
D814   A5 78                LDA $78
D816   0A                   ASL A
D817   AA                   TAX
D818   60                   RTS
D819   B5 02      LD819     LDA $02,X
D81B   30 FC                BMI LD819
D81D   60                   RTS
D81E   A5 7C      LD81E     LDA $7C
D820   48                   PHA
D821   A5 7B                LDA $7B
D823   48                   PHA
D824   A5 7A                LDA $7A
D826   48                   PHA
D827   A5 79                LDA $79
D829   48                   PHA
D82A   A9 11                LDA #$11
D82C   85 7C                STA $7C
D82E   20 76 DF             JSR LDF76
D831   AD 4A 02             LDA $024A
D834   48                   PHA
D835   A5 E3                LDA $E3
D837   29 01                AND #$01
D839   85 78                STA $78
D83B   A6 98                LDX $98
D83D   5D 5B 02             EOR $025B,X
D840   4A                   LSR A
D841   90 0C                BCC LD84F
D843   A2 01                LDX #$01
D845   8E 92 02             STX $0292
D848   20 91 C6             JSR LC691
D84B   F0 1D                BEQ LD86A
D84D   D0 28                BNE LD877
D84F   AD 91 02   LD84F     LDA $0291
D852   F0 0C                BEQ LD860
D854   C5 7A                CMP $7A
D856   F0 1F                BEQ LD877
D858   85 7A                STA $7A
D85A   20 B3 D5             JSR LD5B3
D85D   4C 77 D8             JMP LD877
D860   A9 01      LD860     LDA #$01
D862   8D 92 02             STA $0292
D865   20 FC C6             JSR LC6FC
D868   D0 0D                BNE LD877
D86A   20 E0 D5   LD86A     JSR LD5E0
D86D   A5 7A                LDA $7A
D86F   8D 91 02             STA $0291
D872   A9 02                LDA #$02
D874   8D 92 02             STA $0292
D877   AD 92 02   LD877     LDA $0292
D87A   20 1B D6             JSR LD61B
D87D   68                   PLA
D87E   8D 4A 02             STA $024A
D881   C9 04                CMP #$04
D883   D0 02                BNE LD887
D885   09 80                ORA #$80
D887   20 0D D1   LD887     JSR LD10D
D88A   68                   PLA
D88B   8D 80 02             STA $0280
D88E   20 0D D1             JSR LD10D
D891   68                   PLA
D892   8D 85 02             STA $0285
D895   20 0D D1             JSR LD10D
D898   20 CE E0             JSR LE0CE
D89B   A8                   TAY
D89C   AD 7A 02             LDA $027A
D89F   AA                   TAX
D8A0   A9 10                LDA #$10
D8A2   20 4F C7             JSR LC74F
D8A5   A0 10                LDY #$10
D8A7   A9 00                LDA #$00
D8A9   91 8D      LD8A9     STA ($8D),Y
D8AB   C8                   INY
D8AC   C0 1B                CPY #$1B
D8AE   90 F9                BCC LD8A9
D8B0   AD 4A 02             LDA $024A
D8B3   C9 04                CMP #$04
D8B5   D0 13                BNE LD8CA
D8B7   A0 10                LDY #$10
D8B9   AD 59 02             LDA $0259
D8BC   91 8D                STA ($8D),Y
D8BE   C8                   INY
D8BF   AD 5A 02             LDA $025A
D8C2   91 8D                STA ($8D),Y
D8C4   C8                   INY
D8C5   AD 58 02             LDA $0258
D8C8   91 8D                STA ($8D),Y
D8CA   20 B7 D5   LD8CA     JSR LD5B7
D8CD   68                   PLA
D8CE   85 7B                STA $7B
D8D0   AA                   TAX
D8D1   68                   PLA
D8D2   85 7C                STA $7C
D8D4   AD 91 02             LDA $0291
D8D7   85 D9                STA $D9
D8D9   9D 60 02             STA $0260,X
D8DC   AD 92 02             LDA $0292
D8DF   85 DE                STA $DE
D8E1   9D 66 02             STA $0266,X
D8E4   AD 4A 02             LDA $024A
D8E7   85 E8                STA $E8
D8E9   A5 78                LDA $78
D8EB   85 E3                STA $E3
D8ED   60                   RTS
D8EE   A5 7C      LD8EE     LDA $7C
D8F0   8D 4C 02             STA $024C
D8F3   20 9D C3             JSR LC39D
D8F6   8E 2A 02             STX $022A
D8F9   AE 00 02             LDX $0200
D8FC   AD 4C 02             LDA $024C
D8FF   D0 29                BNE LD92A
D901   E0 2A                CPX #$2A
D903   D0 25                BNE LD92A
D905   A5 77                LDA $77
D907   F0 4A                BEQ LD953
D909   85 79                STA $79
D90B   AD 6E 02             LDA $026E
D90E   85 78                STA $78
D910   85 E3                STA $E3
D912   A9 02                LDA #$02
D914   85 E8                STA $E8
D916   AD 6F 02             LDA $026F
D919   85 7A                STA $7A
D91B   20 7D DD             JSR LDD7D
D91E   A9 04                LDA #$04
D920   05 78                ORA $78
D922   A6 7B      LD922     LDX $7B
D924   99 ED 00             STA $00ED,Y
D927   4C 7E C2             JMP LC27E
D92A   E0 24      LD92A     CPX #$24
D92C   D0 1E                BNE LD94C
D92E   AD 4C 02             LDA $024C
D931   D0 03                BNE LD936
D933   4C 8C DB             JMP LDB8C
D936   20 BB C2   LD936     JSR LC2BB
D939   AD C3 F0             LDA $F0C3
D93C   85 79                STA $79
D93E   A9 00                LDA #$00
D940   85 7A                STA $7A
D942   20 7D DD             JSR LDD7D
D945   A5 78                LDA $78
D947   09 02                ORA #$02
D949   4C 22 D9             JMP LD922
D94C   E0 23      LD94C     CPX #$23
D94E   D0 12                BNE LD962
D950   4C 76 CC             JMP LCC76
D953   A9 02      LD953     LDA #$02
D955   8D 96 02             STA $0296
D958   A9 00                LDA #$00
D95A   85 78                STA $78
D95C   8D 8E 02             STA $028E
D95F   20 5E D1             JSR LD15E
D962   20 CF C2   LD962     JSR LC2CF
D965   D0 04                BNE LD96B
D967   A2 00                LDX #$00
D969   F0 0C                BEQ LD977
D96B   8A         LD96B     TXA
D96C   F0 05                BEQ LD973
D96E   A9 30                LDA #$30
D970   4C B2 C2             JMP LC2B2
D973   88         LD973     DEY
D974   F0 01                BEQ LD977
D976   88                   DEY
D977   8C 7A 02   LD977     STY $027A
D97A   A9 8D                LDA #$8D
D97C   20 52 C3             JSR LC352
D97F   E8                   INX
D980   8E 78 02             STX $0278
D983   20 FC C3             JSR LC3FC
D986   20 B7 C4             JSR LC4B7
D989   20 82 C5             JSR LC582
D98C   A2 00                LDX #$00
D98E   8E 58 02             STX $0258
D991   8E 97 02             STX $0297
D994   8E 4A 02             STX $024A
D997   E8                   INX
D998   EC 77 02             CPX $0277
D99B   B0 10                BCS LD9AD
D99D   20 40 DB             JSR LDB40
D9A0   E8                   INX
D9A1   EC 77 02             CPX $0277
D9A4   B0 07                BCS LD9AD
D9A6   C0 04                CPY #$04
D9A8   F0 3E                BEQ LD9E8
D9AA   20 40 DB             JSR LDB40
D9AD   AE 4C 02   LD9AD     LDX $024C
D9B0   86 7C                STX $7C
D9B2   E0 02                CPX #$02
D9B4   B0 12                BCS LD9C8
D9B6   8E 97 02             STX $0297
D9B9   A9 40                LDA #$40
D9BB   8D F9 02             STA $02F9
D9BE   AD 4A 02             LDA $024A
D9C1   D0 1B                BNE LD9DE
D9C3   A9 02                LDA #$02
D9C5   8D 4A 02             STA $024A
D9C8   AD 4A 02   LD9C8     LDA $024A
D9CB   D0 11                BNE LD9DE
D9CD   A5 E8                LDA $E8
D9CF   29 07                AND #$07
D9D1   8D 4A 02             STA $024A
D9D4   AD 80 02             LDA $0280
D9D7   D0 05                BNE LD9DE
D9D9   A9 01                LDA #$01
D9DB   8D 4A 02             STA $024A
D9DE   AD 97 02   LD9DE     LDA $0297
D9E1   C9 01                CMP #$01
D9E3   F0 18                BEQ LD9FD
D9E5   4C 77 DA             JMP LDA77
D9E8   BC 7A 02   LD9E8     LDY $027A,X
D9EB   B9 00 02             LDA $0200,Y
D9EE   8D 58 02             STA $0258
D9F1   AD 80 02             LDA $0280
D9F4   D0 B7                BNE LD9AD
D9F6   A9 01                LDA #$01
D9F8   8D 97 02             STA $0297
D9FB   D0 B0                BNE LD9AD
D9FD   A5 E8      LD9FD     LDA $E8
D9FF   29 80                AND #$80
DA01   AA                   TAX
DA02   D0 14                BNE LDA18
DA04   A9 20                LDA #$20
DA06   24 E8                BIT $E8
DA08   F0 06                BEQ LDA10
DA0A   20 97 C9             JSR LC997
DA0D   4C 1A DB             JMP LDB1A
DA10   AD 80 02   LDA10     LDA $0280
DA13   D0 03                BNE LDA18
DA15   4C 1A DB             JMP LDB1A
DA18   AD 00 02   LDA18     LDA $0200
DA1B   C9 40                CMP #$40
DA1D   F0 0D                BEQ LDA2C
DA1F   8A                   TXA
DA20   D0 05                BNE LDA27
DA22   A9 63                LDA #$63
DA24   4C B2 C2             JMP LC2B2
DA27   A9 33      LDA27     LDA #$33
DA29   4C B2 C2             JMP LC2B2
DA2C   A5 E8      LDA2C     LDA $E8
DA2E   29 07                AND #$07
DA30   CD 4A 02             CMP $024A
DA33   D0 67                BNE LDA9C
DA35   C9 04                CMP #$04
DA37   F0 63                BEQ LDA9C
DA39   20 15 DE             JSR LDE15
DA3C   A5 7B                LDA $7B
DA3E   8D 70 02             STA $0270
DA41   A9 11                LDA #$11
DA43   85 7C                STA $7C
DA45   20 FB D1             JSR LD1FB
DA48   AD 94 02             LDA $0294
DA4B   20 1B D6             JSR LD61B
DA4E   A0 00                LDY #$00
DA50   B1 8D                LDA ($8D),Y
DA52   09 20                ORA #$20
DA54   91 8D                STA ($8D),Y
DA56   A0 1A                LDY #$1A
DA58   A5 79                LDA $79
DA5A   91 8D                STA ($8D),Y
DA5C   C8                   INY
DA5D   A5 7A                LDA $7A
DA5F   91 8D                STA ($8D),Y
DA61   AE 70 02             LDX $0270
DA64   A5 D9                LDA $D9
DA66   9D 60 02             STA $0260,X
DA69   A5 DE                LDA $DE
DA6B   9D 66 02             STA $0266,X
DA6E   20 76 DF             JSR LDF76
DA71   20 B7 D5             JSR LD5B7
DA74   4C 26 DB             JMP LDB26
DA77   AD 80 02   LDA77     LDA $0280
DA7A   D0 05                BNE LDA81
DA7C   A9 62                LDA #$62
DA7E   4C B2 C2             JMP LC2B2
DA81   AD 97 02   LDA81     LDA $0297
DA84   C9 03                CMP #$03
DA86   F0 0B                BEQ LDA93
DA88   A9 20                LDA #$20
DA8A   24 E8                BIT $E8
DA8C   F0 05                BEQ LDA93
DA8E   A9 60                LDA #$60
DA90   4C B2 C2             JMP LC2B2
DA93   A5 E8      LDA93     LDA $E8
DA95   29 07                AND #$07
DA97   CD 4A 02             CMP $024A
DA9A   F0 05                BEQ LDAA1
DA9C   A9 64      LDA9C     LDA #$64
DA9E   4C B2 C2             JMP LC2B2
DAA1   A0 00      LDAA1     LDY #$00
DAA3   8C 79 02             STY $0279
DAA6   AE 97 02             LDX $0297
DAA9   E0 02                CPX #$02
DAAB   D0 1A                BNE LDAC7
DAAD   C9 04                CMP #$04
DAAF   F0 EB                BEQ LDA9C
DAB1   B1 8D                LDA ($8D),Y
DAB3   29 4F                AND #$4F
DAB5   91 8D                STA ($8D),Y
DAB7   A5 7C                LDA $7C
DAB9   48                   PHA
DABA   A9 11                LDA #$11
DABC   85 7C                STA $7C
DABE   20 76 DF             JSR LDF76
DAC1   20 B7 D5             JSR LD5B7
DAC4   68                   PLA
DAC5   85 7C                STA $7C
DAC7   20 D7 DA   LDAC7     JSR LDAD7
DACA   AD 97 02             LDA $0297
DACD   C9 02                CMP #$02
DACF   D0 55                BNE LDB26
DAD1   20 61 DB             JSR LDB61
DAD4   4C 7E C2             JMP LC27E
DAD7   A0 13      LDAD7     LDY #$13
DAD9   B1 8D                LDA ($8D),Y
DADB   8D 59 02             STA $0259
DADE   C8                   INY
DADF   B1 8D                LDA ($8D),Y
DAE1   8D 5A 02             STA $025A
DAE4   C8                   INY
DAE5   B1 8D                LDA ($8D),Y
DAE7   AE 58 02             LDX $0258
DAEA   8D 58 02             STA $0258
DAED   8A                   TXA
DAEE   F0 0A                BEQ LDAFA
DAF0   CD 58 02             CMP $0258
DAF3   F0 05                BEQ LDAFA
DAF5   A9 50                LDA #$50
DAF7   20 B2 C2             JSR LC2B2
DAFA   AE 79 02   LDAFA     LDX $0279
DAFD   BD 80 02             LDA $0280,X
DB00   85 79                STA $79
DB02   BD 85 02             LDA $0285,X
DB05   85 7A                STA $7A
DB07   20 7D DD             JSR LDD7D
DB0A   A4 7B                LDY $7B
DB0C   AE 79 02             LDX $0279
DB0F   B5 D9                LDA $D9,X
DB11   99 60 02             STA $0260,Y
DB14   B5 DE                LDA $DE,X
DB16   99 66 02             STA $0266,Y
DB19   60                   RTS
DB1A   A5 E3      LDB1A     LDA $E3
DB1C   29 01                AND #$01
DB1E   85 78                STA $78
DB20   20 15 DE             JSR LDE15
DB23   20 1E D8             JSR LD81E
DB26   A5 7C      LDB26     LDA $7C
DB28   C9 02                CMP #$02
DB2A   B0 11                BCS LDB3D
DB2C   20 79 DF             JSR LDF79
DB2F   A5 79                LDA $79
DB31   85 77                STA $77
DB33   A5 78                LDA $78
DB35   8D 6E 02             STA $026E
DB38   A5 7A                LDA $7A
DB3A   8D 6F 02             STA $026F
DB3D   4C 83 C2   LDB3D     JMP LC283
DB40   BC 7A 02   LDB40     LDY $027A,X
DB43   B9 00 02             LDA $0200,Y
DB46   A0 04                LDY #$04
DB48   88         LDB48     DEY
DB49   30 08                BMI LDB53
DB4B   D9 F3 F0             CMP $F0F3,Y
DB4E   D0 F8                BNE LDB48
DB50   8C 97 02             STY $0297
DB53   A0 05      LDB53     LDY #$05
DB55   88         LDB55     DEY
DB56   30 08                BMI LDB60
DB58   D9 F7 F0             CMP $F0F7,Y
DB5B   D0 F8                BNE LDB55
DB5D   8C 4A 02             STY $024A
DB60   60         LDB60     RTS
DB61   20 2E CB   LDB61     JSR LCB2E
DB64   A9 80                LDA #$80
DB66   20 E1 DE             JSR LDEE1
DB69   F0 F6                BEQ LDB61
DB6B   20 D0 DF             JSR LDFD0
DB6E   A6 7A                LDX $7A
DB70   E8                   INX
DB71   8A                   TXA
DB72   D0 05                BNE LDB79
DB74   20 F9 D2             JSR LD2F9
DB77   A9 02                LDA #$02
DB79   20 1B D6   LDB79     JSR LD61B
DB7C   A6 7B                LDX $7B
DB7E   A9 01                LDA #$01
DB80   95 F3                STA $F3,X
DB82   A9 80                LDA #$80
DB84   05 7B                ORA $7B
DB86   A6 7C                LDX $7C
DB88   9D 2B 02             STA $022B,X
DB8B   60                   RTS
DB8C   A9 0D      LDB8C     LDA #$0D
DB8E   8D 2A 02             STA $022A
DB91   A9 00                LDA #$00
DB93   AE 74 02             LDX $0274
DB96   CA                   DEX
DB97   F0 0B                BEQ LDBA4
DB99   CA                   DEX
DB9A   D0 21                BNE LDBBD
DB9C   AD 01 02             LDA $0201
DB9F   20 A5 C4             JSR LC4A5
DBA2   30 19                BMI LDBBD
DBA4   85 E3      LDBA4     STA $E3
DBA6   EE 77 02             INC $0277
DBA9   EE 78 02             INC $0278
DBAC   EE 7A 02             INC $027A
DBAF   A9 80                LDA #$80
DBB1   85 E8                STA $E8
DBB3   A9 2A                LDA #$2A
DBB5   8D 00 02             STA $0200
DBB8   8D 01 02             STA $0201
DBBB   D0 18                BNE LDBD5
DBBD   20 CF C2   LDBBD     JSR LC2CF
DBC0   D0 05                BNE LDBC7
DBC2   20 C6 C3             JSR LC3C6
DBC5   A0 03                LDY #$03
DBC7   88         LDBC7     DEY
DBC8   88                   DEY
DBC9   8C 7A 02             STY $027A
DBCC   20 EA C2             JSR LC2EA
DBCF   20 80 C4             JSR LC480
DBD2   20 0A C4             JSR LC40A
DBD5   20 B7 C4   LDBD5     JSR LC4B7
DBD8   20 98 C8             JSR LC898
DBDB   20 82 C5             JSR LC582
DBDE   20 0B EB             JSR LEB0B
DBE1   20 47 D2             JSR LD247
DBE4   A6 7B                LDX $7B
DBE6   9D 3E 02             STA $023E,X
DBE9   A5 78                LDA $78
DBEB   8D 8E 02             STA $028E
DBEE   09 04                ORA #$04
DBF0   95 ED                STA $ED,X
DBF2   A9 00                LDA #$00
DBF4   85 A4                STA $A4
DBF6   60                   RTS
DBF7   A9 00      LDBF7     LDA #$00
DBF9   8D F9 02             STA $02F9
DBFC   A5 7C                LDA $7C
DBFE   D0 0B                BNE LDC0B
DC00   A9 00                LDA #$00
DC02   8D 54 02             STA $0254
DC05   20 7D D3             JSR LD37D
DC08   4C 2D D6   LDC08     JMP LD62D
DC0B   C9 0F      LDC0B     CMP #$0F
DC0D   F0 14                BEQ LDC23
DC0F   20 39 DC             JSR LDC39
DC12   A5 7C                LDA $7C
DC14   C9 02                CMP #$02
DC16   90 F0                BCC LDC08
DC18   AD 6C 02             LDA $026C
DC1B   D0 03                BNE LDC20
DC1D   4C 7E C2             JMP LC27E
DC20   4C 97 C2   LDC20     JMP LC297
DC23   A9 0E      LDC23     LDA #$0E
DC25   85 7C                STA $7C
DC27   20 39 DC   LDC27     JSR LDC39
DC2A   C6 7C                DEC $7C
DC2C   10 F9                BPL LDC27
DC2E   AD 6C 02             LDA $026C
DC31   D0 03                BNE LDC36
DC33   4C 7E C2             JMP LC27E
DC36   4C 97 C2   LDC36     JMP LC297
DC39   A6 7C      LDC39     LDX $7C
DC3B   BD 2B 02             LDA $022B,X
DC3E   C9 FF                CMP #$FF
DC40   D0 01                BNE LDC43
DC42   60                   RTS
DC43   29 0F      LDC43     AND #$0F
DC45   85 7B                STA $7B
DC47   20 35 D2             JSR LD235
DC4A   C9 07                CMP #$07
DC4C   F0 0F                BEQ LDC5D
DC4E   C9 04                CMP #$04
DC50   F0 11                BEQ LDC63
DC52   20 17 D2             JSR LD217
DC55   B0 09                BCS LDC60
DC57   20 99 DC             JSR LDC99
DC5A   20 DC DC             JSR LDCDC
DC5D   20 5F ED   LDC5D     JSR LED5F
DC60   4C 7D D3   LDC60     JMP LD37D
DC63   20 2C DF   LDC63     JSR LDF2C
DC66   20 D4 CF             JSR LCFD4
DC69   20 06 E3             JSR LE306
DC6C   A6 92                LDX $92
DC6E   86 72                STX $72
DC70   E6 72                INC $72
DC72   A9 00                LDA #$00
DC74   85 6F                STA $6F
DC76   85 70                STA $70
DC78   A5 93                LDA $93
DC7A   38                   SEC
DC7B   E9 0E                SBC #$0E
DC7D   85 71                STA $71
DC7F   20 8C E0             JSR LE08C
DC82   A6 7B                LDX $7B
DC84   A5 6F                LDA $6F
DC86   95 B6                STA $B6,X
DC88   A5 70                LDA $70
DC8A   95 BC                STA $BC,X
DC8C   A9 40                LDA #$40
DC8E   20 E1 DE             JSR LDEE1
DC91   F0 03                BEQ LDC96
DC93   20 DC DC             JSR LDCDC
DC96   4C 7D D3   LDC96     JMP LD37D
DC99   A6 7B      LDC99     LDX $7B
DC9B   B5 B6                LDA $B6,X
DC9D   15 BC                ORA $BC,X
DC9F   D0 0C                BNE LDCAD
DCA1   20 3B D6             JSR LD63B
DCA4   C9 02                CMP #$02
DCA6   D0 05                BNE LDCAD
DCA8   A9 0D                LDA #$0D
DCAA   20 0D D1             JSR LD10D
DCAD   20 3B D6   LDCAD     JSR LD63B
DCB0   C9 02                CMP #$02
DCB2   D0 0F                BNE LDCC3
DCB4   20 D4 CF             JSR LCFD4
DCB7   A6 7B                LDX $7B
DCB9   B5 B6                LDA $B6,X
DCBB   D0 02                BNE LDCBF
DCBD   D6 BC                DEC $BC,X
DCBF   D6 B6      LDCBF     DEC $B6,X
DCC1   A9 00                LDA #$00
DCC3   38         LDCC3     SEC
DCC4   E9 01                SBC #$01
DCC6   48                   PHA
DCC7   A9 00                LDA #$00
DCC9   20 1B D6             JSR LD61B
DCCC   20 0D D1             JSR LD10D
DCCF   68                   PLA
DCD0   20 0D D1             JSR LD10D
DCD3   20 D7 D1             JSR LD1D7
DCD6   20 EC D6             JSR LD6EC
DCD9   4C D4 CF             JMP LCFD4
DCDC   A6 7B      LDCDC     LDX $7B
DCDE   8E 70 02             STX $0270
DCE1   A5 7C                LDA $7C
DCE3   48                   PHA
DCE4   BD 60 02             LDA $0260,X
DCE7   85 7A                STA $7A
DCE9   BD 66 02             LDA $0266,X
DCEC   8D 94 02             STA $0294
DCEF   B5 ED                LDA $ED,X
DCF1   29 01                AND #$01
DCF3   85 78                STA $78
DCF5   AD C3 F0             LDA $F0C3
DCF8   85 79                STA $79
DCFA   20 CE E0             JSR LE0CE
DCFD   48                   PHA
DCFE   85 98                STA $98
DD00   20 B3 D5             JSR LD5B3
DD03   A0 00                LDY #$00
DD05   BD 23 F1             LDA $F123,X
DD08   85 80                STA $80
DD0A   AD 94 02             LDA $0294
DD0D   85 7F                STA $7F
DD0F   B1 7F                LDA ($7F),Y
DD11   29 20                AND #$20
DD13   F0 43                BEQ LDD58
DD15   20 35 D2             JSR LD235
DD18   C9 04                CMP #$04
DD1A   F0 44                BEQ LDD60
DD1C   B1 7F                LDA ($7F),Y
DD1E   29 8F                AND #$8F
DD20   91 7F                STA ($7F),Y
DD22   C8                   INY
DD23   B1 7F                LDA ($7F),Y
DD25   85 79                STA $79
DD27   84 70                STY $70
DD29   A0 1B                LDY #$1B
DD2B   B1 7F                LDA ($7F),Y
DD2D   48                   PHA
DD2E   88                   DEY
DD2F   B1 7F                LDA ($7F),Y
DD31   D0 0A                BNE LDD3D
DD33   85 79                STA $79
DD35   68                   PLA
DD36   85 7A                STA $7A
DD38   A9 67                LDA #$67
DD3A   20 81 E7             JSR LE781
DD3D   48         LDD3D     PHA
DD3E   A9 00                LDA #$00
DD40   91 7F                STA ($7F),Y
DD42   C8                   INY
DD43   91 7F                STA ($7F),Y
DD45   68                   PLA
DD46   A4 70                LDY $70
DD48   91 7F                STA ($7F),Y
DD4A   C8                   INY
DD4B   B1 7F                LDA ($7F),Y
DD4D   85 7A                STA $7A
DD4F   68                   PLA
DD50   91 7F                STA ($7F),Y
DD52   20 5E C9             JSR LC95E
DD55   4C 60 DD             JMP LDD60
DD58   B1 7F      LDD58     LDA ($7F),Y
DD5A   29 0F                AND #$0F
DD5C   09 80                ORA #$80
DD5E   91 7F                STA ($7F),Y
DD60   AE 70 02   LDD60     LDX $0270
DD63   A0 1C                LDY #$1C
DD65   B5 B6                LDA $B6,X
DD67   91 7F                STA ($7F),Y
DD69   C8                   INY
DD6A   B5 BC                LDA $BC,X
DD6C   91 7F                STA ($7F),Y
DD6E   68                   PLA
DD6F   AA                   TAX
DD70   A9 90                LDA #$90
DD72   05 78                ORA $78
DD74   20 E3 D6             JSR LD6E3
DD77   68                   PLA
DD78   85 7C                STA $7C
DD7A   4C 17 D2             JMP LD217
DD7D   A9 01      LDD7D     LDA #$01
DD7F   20 38 D3             JSR LD338
DD82   20 ED DD             JSR LDDED
DD85   AD 4A 02             LDA $024A
DD88   48                   PHA
DD89   0A                   ASL A
DD8A   05 78                ORA $78
DD8C   95 ED                STA $ED,X
DD8E   20 AB D1             JSR LD1AB
DD91   A6 7B                LDX $7B
DD93   A5 79                LDA $79
DD95   D0 05                BNE LDD9C
DD97   A5 7A                LDA $7A
DD99   9D 44 02             STA $0244,X
DD9C   68         LDD9C     PLA
DD9D   C9 04                CMP #$04
DD9F   D0 3F                BNE LDDE0
DDA1   A4 7C                LDY $7C
DDA3   B9 2B 02             LDA $022B,Y
DDA6   09 40                ORA #$40
DDA8   99 2B 02             STA $022B,Y
DDAB   AD 58 02             LDA $0258
DDAE   95 C8                STA $C8,X
DDB0   20 E4 D3             JSR LD3E4
DDB3   10 03                BPL LDDB8
DDB5   4C 65 D3             JMP LD365
DDB8   A6 7B      LDDB8     LDX $7B
DDBA   95 CE                STA $CE,X
DDBC   AC 59 02             LDY $0259
DDBF   84 79                STY $79
DDC1   AC 5A 02             LDY $025A
DDC4   84 7A                STY $7A
DDC6   20 08 D8             JSR LD808
DDC9   20 AE DF             JSR LDFAE
DDCC   20 EC D6             JSR LD6EC
DDCF   A6 7B      LDDCF     LDX $7B
DDD1   A9 02                LDA #$02
DDD3   95 C2                STA $C2,X
DDD5   A9 00                LDA #$00
DDD7   20 1B D6             JSR LD61B
DDDA   20 8E E2             JSR LE28E
DDDD   4C 79 DF             JMP LDF79
DDE0   20 71 D2   LDDE0     JSR LD271
DDE3   A6 7B                LDX $7B
DDE5   9D 3E 02             STA $023E,X
DDE8   A9 88                LDA #$88
DDEA   95 F3                STA $F3,X
DDEC   60                   RTS
DDED   A6 7B      LDDED     LDX $7B
DDEF   B5 A8                LDA $A8,X
DDF1   0A                   ASL A
DDF2   30 06                BMI LDDFA
DDF4   A8                   TAY
DDF5   A9 02                LDA #$02
DDF7   99 9A 00             STA $009A,Y
DDFA   B5 AF      LDDFA     LDA $AF,X
DDFC   09 80                ORA #$80
DDFE   95 AF                STA $AF,X
DE00   0A                   ASL A
DE01   30 06                BMI LDE09
DE03   A8                   TAY
DE04   A9 02                LDA #$02
DE06   99 9A 00             STA $009A,Y
DE09   A9 00      LDE09     LDA #$00
DE0B   95 B6                STA $B6,X
DE0D   95 BC                STA $BC,X
DE0F   A9 00                LDA #$00
DE11   9D 44 02             STA $0244,X
DE14   60                   RTS
DE15   20 14 F0   LDE15     JSR LF014
DE18   A9 01                LDA #$01
DE1A   20 35 D3             JSR LD335
DE1D   20 05 D8             JSR LD805
DE20   20 ED DD             JSR LDDED
DE23   A6 7B                LDX $7B
DE25   AD 4A 02             LDA $024A
DE28   48                   PHA
DE29   0A                   ASL A
DE2A   05 78                ORA $78
DE2C   95 ED                STA $ED,X
DE2E   68                   PLA
DE2F   C9 04                CMP #$04
DE31   F0 05                BEQ LDE38
DE33   A9 01                LDA #$01
DE35   95 F3                STA $F3,X
DE37   60                   RTS
DE38   A4 7C      LDE38     LDY $7C
DE3A   B9 2B 02             LDA $022B,Y
DE3D   29 3F                AND #$3F
DE3F   09 40                ORA #$40
DE41   99 2B 02             STA $022B,Y
DE44   AD 58 02             LDA $0258
DE47   95 C8                STA $C8,X
DE49   20 E4 D3             JSR LD3E4
DE4C   10 03                BPL LDE51
DE4E   4C 65 D3             JMP LD365
DE51   A6 7B      LDE51     LDX $7B
DE53   95 CE                STA $CE,X
DE55   20 FC DF             JSR LDFFC
DE58   20 89 EF             JSR LEF89
DE5B   A5 79                LDA $79
DE5D   8D 59 02             STA $0259
DE60   A5 7A                LDA $7A
DE62   8D 5A 02             STA $025A
DE65   A6 7B                LDX $7B
DE67   B5 CE                LDA $CE,X
DE69   20 08 D8             JSR LD808
DE6C   A9 00                LDA #$00
DE6E   20 24 E0             JSR LE024
DE71   A9 00                LDA #$00
DE73   20 C8 DE             JSR LDEC8
DE76   A9 11                LDA #$11
DE78   20 C8 DE             JSR LDEC8
DE7B   A9 00                LDA #$00
DE7D   20 C8 DE             JSR LDEC8
DE80   AD 58 02             LDA $0258
DE83   20 C8 DE             JSR LDEC8
DE86   A5 79                LDA $79
DE88   20 C8 DE             JSR LDEC8
DE8B   A5 7A                LDA $7A
DE8D   20 C8 DE             JSR LDEC8
DE90   A9 10                LDA #$10
DE92   20 24 E0             JSR LE024
DE95   20 79 DF             JSR LDF79
DE98   A5 79                LDA $79
DE9A   20 C8 DE             JSR LDEC8
DE9D   A5 7A                LDA $7A
DE9F   20 C8 DE             JSR LDEC8
DEA2   20 A7 DF             JSR LDFA7
DEA5   20 EC D6             JSR LD6EC
DEA8   A9 02                LDA #$02
DEAA   20 1B D6             JSR LD61B
DEAD   A6 7B                LDX $7B
DEAF   38                   SEC
DEB0   A9 00                LDA #$00
DEB2   F5 C8                SBC $C8,X
DEB4   95 C2                STA $C2,X
DEB6   20 1D E4             JSR LE41D
DEB9   20 54 DF             JSR LDF54
DEBC   20 99 DF             JSR LDF99
DEBF   20 EC D6             JSR LD6EC
DEC2   20 5F ED             JSR LED5F
DEC5   4C CF DD             JMP LDDCF
DEC8   48         LDEC8     PHA
DEC9   A6 7B                LDX $7B
DECB   B5 CE                LDA $CE,X
DECD   4C 19 D1             JMP LD119
DED0   90 06                BCC LDED8
DED2   A6 7B      LDED2     LDX $7B
DED4   15 ED                ORA $ED,X
DED6   D0 06                BNE LDEDE
DED8   A6 7B      LDED8     LDX $7B
DEDA   49 FF                EOR #$FF
DEDC   35 ED                AND $ED,X
DEDE   95 ED      LDEDE     STA $ED,X
DEE0   60                   RTS
DEE1   A6 7B      LDEE1     LDX $7B
DEE3   35 ED                AND $ED,X
DEE5   60                   RTS
DEE6   20 CE E0   LDEE6     JSR LE0CE
DEE9   AA                   TAX
DEEA   BD 5B 02             LDA $025B,X
DEED   29 F0                AND #$F0
DEEF   C9 90                CMP #$90
DEF1   60                   RTS
DEF2   A2 00      LDEF2     LDX #$00
DEF4   86 70      LDEF4     STX $70
DEF6   BD 2B 02             LDA $022B,X
DEF9   C9 FF                CMP #$FF
DEFB   D0 08                BNE LDF05
DEFD   A6 70      LDEFD     LDX $70
DEFF   E8                   INX
DF00   E0 10                CPX #$10
DF02   90 F0                BCC LDEF4
DF04   60                   RTS
DF05   86 70      LDF05     STX $70
DF07   29 3F                AND #$3F
DF09   A8                   TAY
DF0A   B9 ED 00             LDA $00ED,Y
DF0D   29 01                AND #$01
DF0F   85 6F                STA $6F
DF11   AE 53 02             LDX $0253
DF14   B5 E3                LDA $E3,X
DF16   29 01                AND #$01
DF18   C5 6F                CMP $6F
DF1A   D0 E1                BNE LDEFD
DF1C   B9 60 02             LDA $0260,Y
DF1F   D5 D9                CMP $D9,X
DF21   D0 DA                BNE LDEFD
DF23   B9 66 02             LDA $0266,Y
DF26   D5 DE                CMP $DE,X
DF28   D0 D3                BNE LDEFD
DF2A   18                   CLC
DF2B   60                   RTS
DF2C   20 D9 E0   LDF2C     JSR LE0D9
DF2F   50 06                BVC LDF37
DF31   20 99 DF             JSR LDF99
DF34   20 EC D6             JSR LD6EC
DF37   60         LDF37     RTS
DF38   20 66 DF   LDF38     JSR LDF66
DF3B   A5 79                LDA $79
DF3D   91 8D                STA ($8D),Y
DF3F   C8                   INY
DF40   A5 7A                LDA $7A
DF42   91 8D                STA ($8D),Y
DF44   4C 40 E2             JMP LE240
DF47   20 66 DF   LDF47     JSR LDF66
DF4A   B1 8D                LDA ($8D),Y
DF4C   85 79                STA $79
DF4E   C8                   INY
DF4F   B1 8D                LDA ($8D),Y
DF51   85 7A                STA $7A
DF53   60                   RTS
DF54   20 66 DF   LDF54     JSR LDF66
DF57   A9 00                LDA #$00
DF59   91 8D                STA ($8D),Y
DF5B   C8                   INY
DF5C   A6 7B                LDX $7B
DF5E   B5 C2                LDA $C2,X
DF60   AA                   TAX
DF61   CA                   DEX
DF62   8A                   TXA
DF63   91 8D                STA ($8D),Y
DF65   60                   RTS
DF66   20 CE E0   LDF66     JSR LE0CE
DF69   0A                   ASL A
DF6A   AA                   TAX
DF6B   B5 9B                LDA $9B,X
DF6D   85 8E                STA $8E
DF6F   A9 00                LDA #$00
DF71   85 8D                STA $8D
DF73   A0 00                LDY #$00
DF75   60                   RTS
DF76   20 FB D1   LDF76     JSR LD1FB
DF79   20 CE E0   LDF79     JSR LE0CE
DF7C   85 98                STA $98
DF7E   0A                   ASL A
DF7F   A8                   TAY
DF80   B9 08 00             LDA $0008,Y
DF83   85 79                STA $79
DF85   B9 09 00             LDA $0009,Y
DF88   85 7A                STA $7A
DF8A   60                   RTS
DF8B   A9 90      LDF8B     LDA #$90
DF8D   8D 4D 02             STA $024D
DF90   D0 28                BNE LDFBA
DF92   A9 80      LDF92     LDA #$80
DF94   8D 4D 02             STA $024D
DF97   D0 21                BNE LDFBA
DF99   A9 90      LDF99     LDA #$90
DF9B   8D 4D 02             STA $024D
DF9E   D0 26                BNE LDFC6
DFA0   A9 80                LDA #$80
DFA2   8D 4D 02             STA $024D
DFA5   D0 1F                BNE LDFC6
DFA7   A9 90      LDFA7     LDA #$90
DFA9   8D 4D 02             STA $024D
DFAC   D0 02                BNE LDFB0
DFAE   A9 80      LDFAE     LDA #$80
DFB0   8D 4D 02   LDFB0     STA $024D
DFB3   A6 7B                LDX $7B
DFB5   B5 CE                LDA $CE,X
DFB7   AA                   TAX
DFB8   10 13                BPL LDFCD
DFBA   20 05 D8   LDFBA     JSR LD805
DFBD   20 CE E0             JSR LE0CE
DFC0   AA                   TAX
DFC1   A5 78                LDA $78
DFC3   9D 5B 02             STA $025B,X
DFC6   20 50 E2   LDFC6     JSR LE250
DFC9   20 CE E0             JSR LE0CE
DFCC   AA                   TAX
DFCD   4C 59 D6   LDFCD     JMP LD659
DFD0   A9 00      LDFD0     LDA #$00
DFD2   20 1B D6             JSR LD61B
DFD5   20 47 D2             JSR LD247
DFD8   85 79                STA $79
DFDA   20 47 D2             JSR LD247
DFDD   85 7A                STA $7A
DFDF   60                   RTS
DFE0   48         LDFE0     PHA
DFE1   A9 00                LDA #$00
DFE3   85 6E                STA $6E
DFE5   85 70                STA $70
DFE7   B9 23 F1             LDA $F123,Y
DFEA   85 6F                STA $6F
DFEC   BD 23 F1             LDA $F123,X
DFEF   85 71                STA $71
DFF1   68                   PLA
DFF2   A8                   TAY
DFF3   88                   DEY
DFF4   B1 6E      LDFF4     LDA ($6E),Y
DFF6   91 70                STA ($70),Y
DFF8   88                   DEY
DFF9   10 F9                BPL LDFF4
DFFB   60                   RTS
DFFC   A8         LDFFC     TAY
DFFD   B9 23 F1             LDA $F123,Y
E000   85 6F                STA $6F
E002   A9 00                LDA #$00
E004   85 6E                STA $6E
E006   A8                   TAY
E007   91 6E      LE007     STA ($6E),Y
E009   C8                   INY
E00A   D0 FB                BNE LE007
E00C   60                   RTS
E00D   A9 00      LE00D     LDA #$00
E00F   20 17 E0             JSR LE017
E012   A0 02                LDY #$02
E014   B1 8D                LDA ($8D),Y
E016   60                   RTS
E017   85 8D      LE017     STA $8D
E019   A6 7B                LDX $7B
E01B   B5 CE                LDA $CE,X
E01D   AA                   TAX
E01E   BD 23 F1             LDA $F123,X
E021   85 8E                STA $8E
E023   60                   RTS
E024   48         LE024     PHA
E025   20 17 E0             JSR LE017
E028   48                   PHA
E029   8A                   TXA
E02A   0A                   ASL A
E02B   AA                   TAX
E02C   68                   PLA
E02D   95 9B                STA $9B,X
E02F   68                   PLA
E030   95 9A                STA $9A,X
E032   60                   RTS
E033   20 A1 E0   LE033     JSR LE0A1
E036   30 0E                BMI LE046
E038   50 13                BVC LE04D
E03A   A6 7B                LDX $7B
E03C   B5 CE                LDA $CE,X
E03E   20 56 E0             JSR LE056
E041   20 A1 E0             JSR LE0A1
E044   10 07                BPL LE04D
E046   20 06 E3   LE046     JSR LE306
E049   2C 0F F1             BIT $F10F
E04C   60                   RTS
E04D   A5 93      LE04D     LDA $93
E04F   20 24 E0             JSR LE024
E052   2C 0E F1             BIT $F10E
E055   60                   RTS
E056   85 98      LE056     STA $98
E058   A9 80                LDA #$80
E05A   D0 04                BNE LE060
E05C   85 98                STA $98
E05E   A9 90                LDA #$90
E060   48         LE060     PHA
E061   B5 ED                LDA $ED,X
E063   29 01                AND #$01
E065   85 78                STA $78
E067   68                   PLA
E068   05 78                ORA $78
E06A   8D 4D 02             STA $024D
E06D   B1 8D                LDA ($8D),Y
E06F   85 79                STA $79
E071   C8                   INY
E072   B1 8D                LDA ($8D),Y
E074   85 7A                STA $7A
E076   A5 98                LDA $98
E078   20 08 D8             JSR LD808
E07B   A6 98                LDX $98
E07D   4C E6 D6             JMP LD6E6
E080   A6 7B      LE080     LDX $7B
E082   B5 CE                LDA $CE,X
E084   4C 3E D6             JMP LD63E
E087   A9 78      LE087     LDA #$78
E089   20 97 E0             JSR LE097
E08C   CA         LE08C     DEX
E08D   10 F8                BPL LE087
E08F   A5 71                LDA $71
E091   4A                   LSR A
E092   20 97 E0             JSR LE097
E095   A5 72                LDA $72
E097   18         LE097     CLC
E098   65 6F                ADC $6F
E09A   85 6F                STA $6F
E09C   90 02                BCC LE0A0
E09E   E6 70                INC $70
E0A0   60         LE0A0     RTS
E0A1   20 0D E0   LE0A1     JSR LE00D
E0A4   C5 92                CMP $92
E0A6   D0 0E                BNE LE0B6
E0A8   A4 93                LDY $93
E0AA   B1 8D                LDA ($8D),Y
E0AC   F0 04                BEQ LE0B2
E0AE   2C 0E F1             BIT $F10E
E0B1   60                   RTS
E0B2   2C 10 F1   LE0B2     BIT $F110
E0B5   60                   RTS
E0B6   A5 92      LE0B6     LDA $92
E0B8   C9 06                CMP #$06
E0BA   B0 0A                BCS LE0C6
E0BC   0A                   ASL A
E0BD   A8                   TAY
E0BE   A9 04                LDA #$04
E0C0   85 8D                STA $8D
E0C2   B1 8D                LDA ($8D),Y
E0C4   D0 04                BNE LE0CA
E0C6   2C 11 F1   LE0C6     BIT $F111
E0C9   60                   RTS
E0CA   2C 0F F1   LE0CA     BIT $F10F
E0CD   60                   RTS
E0CE   A6 7B      LE0CE     LDX $7B
E0D0   B5 A8                LDA $A8,X
E0D2   10 02                BPL LE0D6
E0D4   B5 AF                LDA $AF,X
E0D6   29 BF      LE0D6     AND #$BF
E0D8   60                   RTS
E0D9   A6 7B      LE0D9     LDX $7B
E0DB   8E 57 02             STX $0257
E0DE   B5 A8                LDA $A8,X
E0E0   10 09                BPL LE0EB
E0E2   8A                   TXA
E0E3   18                   CLC
E0E4   69 07                ADC #$07
E0E6   8D 57 02             STA $0257
E0E9   B5 AF                LDA $AF,X
E0EB   85 6F      LE0EB     STA $6F
E0ED   29 1F                AND #$1F
E0EF   24 6F                BIT $6F
E0F1   60                   RTS
E0F2   A6 7B      LE0F2     LDX $7B
E0F4   B5 A8                LDA $A8,X
E0F6   30 02                BMI LE0FA
E0F8   B5 AF                LDA $AF,X
E0FA   C9 FF      LE0FA     CMP #$FF
E0FC   60                   RTS
E0FD   A6 7B      LE0FD     LDX $7B
E0FF   09 80                ORA #$80
E101   B4 A8                LDY $A8,X
E103   10 03                BPL LE108
E105   95 A8                STA $A8,X
E107   60                   RTS
E108   95 AF      LE108     STA $AF,X
E10A   60                   RTS
E10B   A9 20      LE10B     LDA #$20
E10D   20 D8 DE             JSR LDED8
E110   A9 80                LDA #$80
E112   20 E1 DE             JSR LDEE1
E115   D0 41                BNE LE158
E117   A6 7B                LDX $7B
E119   F6 B6                INC $B6,X
E11B   D0 02                BNE LE11F
E11D   F6 BC                INC $BC,X
E11F   A6 7B      LE11F     LDX $7B
E121   B5 C2                LDA $C2,X
E123   F0 2E                BEQ LE153
E125   20 3B D6             JSR LD63B
E128   A6 7B                LDX $7B
E12A   D5 C2                CMP $C2,X
E12C   90 03                BCC LE131
E12E   20 77 E1             JSR LE177
E131   A6 7B      LE131     LDX $7B
E133   B5 C2                LDA $C2,X
E135   20 1B D6             JSR LD61B
E138   A1 9A                LDA ($9A,X)
E13A   85 7E                STA $7E
E13C   A9 20                LDA #$20
E13E   20 D8 DE             JSR LDED8
E141   20 3F E4             JSR LE43F
E144   48         LE144     PHA
E145   90 28                BCC LE16F
E147   A9 00                LDA #$00
E149   20 49 D6             JSR LD649
E14C   D0 21                BNE LE16F
E14E   68                   PLA
E14F   C9 02                CMP #$02
E151   F0 12                BEQ LE165
E153   A9 80      LE153     LDA #$80
E155   20 D2 DE             JSR LDED2
E158   20 3F D2   LE158     JSR LD23F
E15B   B5 9A                LDA $9A,X
E15D   99 44 02             STA $0244,Y
E160   A9 0D                LDA #$0D
E162   85 7E                STA $7E
E164   60                   RTS
E165   20 70 E1   LE165     JSR LE170
E168   A6 7B                LDX $7B
E16A   A9 00                LDA #$00
E16C   95 C2                STA $C2,X
E16E   60                   RTS
E16F   68         LE16F     PLA
E170   A6 7B      LE170     LDX $7B
E172   95 C2                STA $C2,X
E174   4C A9 E2             JMP LE2A9
E177   20 29 D3   LE177     JSR LD329
E17A   20 D0 DF             JSR LDFD0
E17D   20 D9 E0             JSR LE0D9
E180   50 16                BVC LE198
E182   20 99 DF             JSR LDF99
E185   20 D4 CF             JSR LCFD4
E188   A9 02                LDA #$02
E18A   20 1B D6             JSR LD61B
E18D   20 E6 DE             JSR LDEE6
E190   D0 24                BNE LE1B6
E192   20 92 DF             JSR LDF92
E195   4C EC D6             JMP LD6EC
E198   20 D4 CF   LE198     JSR LCFD4
E19B   20 E6 DE             JSR LDEE6
E19E   D0 06                BNE LE1A6
E1A0   20 92 DF             JSR LDF92
E1A3   20 EC D6             JSR LD6EC
E1A6   20 D0 DF   LE1A6     JSR LDFD0
E1A9   A5 79                LDA $79
E1AB   F0 09                BEQ LE1B6
E1AD   20 D4 CF             JSR LCFD4
E1B0   20 92 DF             JSR LDF92
E1B3   20 D4 CF             JSR LCFD4
E1B6   60         LE1B6     RTS
E1B7   20 40 E2   LE1B7     JSR LE240
E1BA   20 CE E0             JSR LE0CE
E1BD   0A                   ASL A
E1BE   AA                   TAX
E1BF   A5 7E                LDA $7E
E1C1   81 9A                STA ($9A,X)
E1C3   B4 9A                LDY $9A,X
E1C5   C8                   INY
E1C6   D0 09                BNE LE1D1
E1C8   A4 7B                LDY $7B
E1CA   B9 C2 00             LDA $00C2,Y
E1CD   F0 0A                BEQ LE1D9
E1CF   A0 02                LDY #$02
E1D1   98         LE1D1     TYA
E1D2   A4 7B                LDY $7B
E1D4   D9 C2 00             CMP $00C2,Y
E1D7   D0 05                BNE LE1DE
E1D9   A9 20      LE1D9     LDA #$20
E1DB   4C D2 DE             JMP LDED2
E1DE   F6 9A      LE1DE     INC $9A,X
E1E0   D0 03                BNE LE1E5
E1E2   20 77 E1             JSR LE177
E1E5   60         LE1E5     RTS
E1E6   A9 A0      LE1E6     LDA #$A0
E1E8   20 E1 DE             JSR LDEE1
E1EB   D0 27                BNE LE214
E1ED   A5 7E      LE1ED     LDA $7E
E1EF   20 B7 E1             JSR LE1B7
E1F2   A5 95                LDA $95
E1F4   F0 0D                BEQ LE203
E1F6   60                   RTS
E1F7   A9 20      LE1F7     LDA #$20
E1F9   20 E1 DE             JSR LDEE1
E1FC   F0 05                BEQ LE203
E1FE   A9 51                LDA #$51
E200   8D 6C 02             STA $026C
E203   20 2E E2   LE203     JSR LE22E
E206   20 8E E2             JSR LE28E
E209   AD 6C 02             LDA $026C
E20C   F0 03                BEQ LE211
E20E   4C B2 C2             JMP LC2B2
E211   4C FB E7   LE211     JMP LE7FB
E214   29 80      LE214     AND #$80
E216   D0 05                BNE LE21D
E218   A5 95                LDA $95
E21A   F0 DB                BEQ LE1F7
E21C   60                   RTS
E21D   A5 7E      LE21D     LDA $7E
E21F   48                   PHA
E220   20 57 E4             JSR LE457
E223   68                   PLA
E224   85 7E                STA $7E
E226   A9 80                LDA #$80
E228   20 D8 DE             JSR LDED8
E22B   4C ED E1             JMP LE1ED
E22E   A9 20      LE22E     LDA #$20
E230   20 E1 DE             JSR LDEE1
E233   D0 0A                BNE LE23F
E235   A9 00                LDA #$00
E237   85 7E                STA $7E
E239   20 B7 E1             JSR LE1B7
E23C   4C 2E E2             JMP LE22E
E23F   60         LE23F     RTS
E240   A9 40      LE240     LDA #$40
E242   20 D2 DE             JSR LDED2
E245   20 D9 E0             JSR LE0D9
E248   09 40                ORA #$40
E24A   AE 57 02             LDX $0257
E24D   95 A8                STA $A8,X
E24F   60                   RTS
E250   20 D9 E0   LE250     JSR LE0D9
E253   29 BF                AND #$BF
E255   AE 57 02             LDX $0257
E258   95 A8                STA $A8,X
E25A   60                   RTS
E25B   A9 80      LE25B     LDA #$80
E25D   20 E1 DE             JSR LDEE1
E260   D0 37                BNE LE299
E262   20 3F D2             JSR LD23F
E265   B5 9A                LDA $9A,X
E267   D9 44 02             CMP $0244,Y
E26A   F0 22                BEQ LE28E
E26C   F6 9A                INC $9A,X
E26E   D0 06                BNE LE276
E270   20 77 E1             JSR LE177
E273   20 3F D2   LE273     JSR LD23F
E276   A1 9A      LE276     LDA ($9A,X)
E278   99 3E 02   LE278     STA $023E,Y
E27B   A9 89                LDA #$89
E27D   99 F3 00             STA $00F3,Y
E280   B5 9A                LDA $9A,X
E282   D9 44 02             CMP $0244,Y
E285   F0 01                BEQ LE288
E287   60                   RTS
E288   A9 81      LE288     LDA #$81
E28A   99 F3 00             STA $00F3,Y
E28D   60                   RTS
E28E   20 0B E1   LE28E     JSR LE10B
E291   20 3F D2             JSR LD23F
E294   A5 7E                LDA $7E
E296   4C 78 E2             JMP LE278
E299   A6 7B      LE299     LDX $7B
E29B   A9 0D                LDA #$0D
E29D   9D 3E 02             STA $023E,X
E2A0   A9 81                LDA #$81
E2A2   95 F3                STA $F3,X
E2A4   A9 50                LDA #$50
E2A6   20 B2 C2             JSR LC2B2
E2A9   A6 7B      LE2A9     LDX $7B
E2AB   B5 C2                LDA $C2,X
E2AD   85 80                STA $80
E2AF   C6 80                DEC $80
E2B1   C9 02                CMP #$02
E2B3   D0 04                BNE LE2B9
E2B5   A9 FF                LDA #$FF
E2B7   85 80                STA $80
E2B9   B5 C8      LE2B9     LDA $C8,X
E2BB   85 81                STA $81
E2BD   20 3B D6             JSR LD63B
E2C0   A6 7B                LDX $7B
E2C2   C5 80                CMP $80
E2C4   90 19                BCC LE2DF
E2C6   F0 17                BEQ LE2DF
E2C8   20 D4 CF             JSR LCFD4
E2CB   20 ED E2             JSR LE2ED
E2CE   90 08                BCC LE2D8
E2D0   A6 7B                LDX $7B
E2D2   9D 44 02             STA $0244,X
E2D5   4C D4 CF             JMP LCFD4
E2D8   20 D4 CF   LE2D8     JSR LCFD4
E2DB   A9 FF                LDA #$FF
E2DD   85 80                STA $80
E2DF   20 ED E2   LE2DF     JSR LE2ED
E2E2   B0 03                BCS LE2E7
E2E4   20 3B D6             JSR LD63B
E2E7   A6 7B      LE2E7     LDX $7B
E2E9   9D 44 02             STA $0244,X
E2EC   60                   RTS
E2ED   20 66 DF   LE2ED     JSR LDF66
E2F0   A4 80                LDY $80
E2F2   B1 8D      LE2F2     LDA ($8D),Y
E2F4   D0 0D                BNE LE303
E2F6   88                   DEY
E2F7   C0 02                CPY #$02
E2F9   90 04                BCC LE2FF
E2FB   C6 81                DEC $81
E2FD   D0 F3                BNE LE2F2
E2FF   C6 81      LE2FF     DEC $81
E301   18                   CLC
E302   60                   RTS
E303   98         LE303     TYA
E304   38                   SEC
E305   60                   RTS
E306   20 0D E0   LE306     JSR LE00D
E309   85 92                STA $92
E30B   A9 04                LDA #$04
E30D   85 8D                STA $8D
E30F   A0 0A                LDY #$0A
E311   D0 04                BNE LE317
E313   88         LE313     DEY
E314   88                   DEY
E315   30 26                BMI LE33D
E317   B1 8D      LE317     LDA ($8D),Y
E319   F0 F8                BEQ LE313
E31B   98                   TYA
E31C   4A                   LSR A
E31D   C5 92                CMP $92
E31F   F0 09                BEQ LE32A
E321   85 92                STA $92
E323   A6 7B                LDX $7B
E325   B5 CE                LDA $CE,X
E327   20 56 E0             JSR LE056
E32A   A0 00      LE32A     LDY #$00
E32C   84 8D                STY $8D
E32E   B1 8D                LDA ($8D),Y
E330   D0 0B                BNE LE33D
E332   C8                   INY
E333   B1 8D                LDA ($8D),Y
E335   A8                   TAY
E336   88                   DEY
E337   84 93                STY $93
E339   98                   TYA
E33A   4C 24 E0             JMP LE024
E33D   A9 67      LE33D     LDA #$67
E33F   20 81 E7             JSR LE781
E342   20 9D C3             JSR LC39D
E345   AD 01 02             LDA $0201
E348   85 7C                STA $7C
E34A   20 FB D1             JSR LD1FB
E34D   90 05                BCC LE354
E34F   A9 70                LDA #$70
E351   20 B2 C2             JSR LC2B2
E354   A9 A0      LE354     LDA #$A0
E356   20 D8 DE             JSR LDED8
E359   20 35 D2             JSR LD235
E35C   F0 05                BEQ LE363
E35E   A9 64                LDA #$64
E360   20 B2 C2             JSR LC2B2
E363   B5 ED      LE363     LDA $ED,X
E365   29 01                AND #$01
E367   85 78                STA $78
E369   AD 02 02             LDA $0202
E36C   95 B6                STA $B6,X
E36E   AD 03 02             LDA $0203
E371   95 BC                STA $BC,X
E373   A6 7B                LDX $7B
E375   A9 89                LDA #$89
E377   95 F3                STA $F3,X
E379   AD 04 02             LDA $0204
E37C   F0 10                BEQ LE38E
E37E   38                   SEC
E37F   E9 01                SBC #$01
E381   F0 0B                BEQ LE38E
E383   D5 C8                CMP $C8,X
E385   90 07                BCC LE38E
E387   A9 51                LDA #$51
E389   8D 6C 02             STA $026C
E38C   A9 00                LDA #$00
E38E   85 91      LE38E     STA $91
E390   20 FD CE             JSR LCEFD
E393   20 33 E0             JSR LE033
E396   50 08                BVC LE3A0
E398   A9 80                LDA #$80
E39A   20 D2 DE             JSR LDED2
E39D   4C 99 E2             JMP LE299
E3A0   20 B0 E3   LE3A0     JSR LE3B0
E3A3   A9 80                LDA #$80
E3A5   20 E1 DE             JSR LDEE1
E3A8   F0 03                BEQ LE3AD
E3AA   4C 99 E2             JMP LE299
E3AD   4C 7E C2   LE3AD     JMP LC27E
E3B0   20 D7 E3   LE3B0     JSR LE3D7
E3B3   A5 94                LDA $94
E3B5   20 1B D6             JSR LD61B
E3B8   A6 7B                LDX $7B
E3BA   B5 C8                LDA $C8,X
E3BC   38                   SEC
E3BD   E5 91                SBC $91
E3BF   B0 03                BCS LE3C4
E3C1   4C 3D E3             JMP LE33D
E3C4   18         LE3C4     CLC
E3C5   65 94                ADC $94
E3C7   90 03                BCC LE3CC
E3C9   69 01                ADC #$01
E3CB   38                   SEC
E3CC   20 44 E1   LE3CC     JSR LE144
E3CF   4C 73 E2             JMP LE273
E3D2   A9 51                LDA #$51
E3D4   20 B2 C2             JSR LC2B2
E3D7   A5 8D      LE3D7     LDA $8D
E3D9   85 82                STA $82
E3DB   A5 8E                LDA $8E
E3DD   85 83                STA $83
E3DF   20 0B E4             JSR LE40B
E3E2   D0 01                BNE LE3E5
E3E4   60                   RTS
E3E5   20 2C DF   LE3E5     JSR LDF2C
E3E8   20 47 DF             JSR LDF47
E3EB   A5 79                LDA $79
E3ED   F0 0E                BEQ LE3FD
E3EF   20 0E E4             JSR LE40E
E3F2   D0 06                BNE LE3FA
E3F4   20 D4 CF             JSR LCFD4
E3F7   4C 2C D4             JMP LD42C
E3FA   20 2C D4   LE3FA     JSR LD42C
E3FD   A0 00      LE3FD     LDY #$00
E3FF   B1 82                LDA ($82),Y
E401   85 79                STA $79
E403   C8                   INY
E404   B1 82                LDA ($82),Y
E406   85 7A                STA $7A
E408   4C BF D1             JMP LD1BF
E40B   20 79 DF   LE40B     JSR LDF79
E40E   A0 00      LE40E     LDY #$00
E410   B1 82                LDA ($82),Y
E412   C5 79                CMP $79
E414   F0 01                BEQ LE417
E416   60                   RTS
E417   C8         LE417     INY
E418   B1 82                LDA ($82),Y
E41A   C5 7A                CMP $7A
E41C   60                   RTS
E41D   20 66 DF   LE41D     JSR LDF66
E420   A0 02                LDY #$02
E422   A9 00                LDA #$00
E424   91 8D      LE424     STA ($8D),Y
E426   C8                   INY
E427   D0 FB                BNE LE424
E429   20 3F E4             JSR LE43F
E42C   95 C2      LE42C     STA $C2,X
E42E   A8                   TAY
E42F   A9 FF                LDA #$FF
E431   91 8D                STA ($8D),Y
E433   20 3F E4             JSR LE43F
E436   90 F4                BCC LE42C
E438   D0 04                BNE LE43E
E43A   A9 00                LDA #$00
E43C   95 C2                STA $C2,X
E43E   60         LE43E     RTS
E43F   A6 7B      LE43F     LDX $7B
E441   B5 C2                LDA $C2,X
E443   38                   SEC
E444   F0 0D                BEQ LE453
E446   18                   CLC
E447   75 C8                ADC $C8,X
E449   90 0B                BCC LE456
E44B   D0 06                BNE LE453
E44D   A9 02                LDA #$02
E44F   2C 0D F1             BIT $F10D
E452   60                   RTS
E453   69 01      LE453     ADC #$01
E455   38                   SEC
E456   60         LE456     RTS
E457   20 29 D3   LE457     JSR LD329
E45A   20 06 E3             JSR LE306
E45D   20 D7 E3             JSR LE3D7
E460   20 9A D0             JSR LD09A
E463   A5 93                LDA $93
E465   85 80                STA $80
E467   A5 92                LDA $92
E469   85 7F                STA $7F
E46B   A9 00                LDA #$00
E46D   85 81                STA $81
E46F   A9 00                LDA #$00
E471   85 91                STA $91
E473   20 FD CE             JSR LCEFD
E476   20 B8 ED   LE476     JSR LEDB8
E479   A4 7B                LDY $7B
E47B   B6 C8                LDX $C8,Y
E47D   CA                   DEX
E47E   8A                   TXA
E47F   18                   CLC
E480   65 94                ADC $94
E482   90 0C                BCC LE490
E484   E6 93                INC $93
E486   E6 93                INC $93
E488   D0 06                BNE LE490
E48A   E6 92                INC $92
E48C   A9 10                LDA #$10
E48E   85 93                STA $93
E490   A5 80      LE490     LDA $80
E492   18                   CLC
E493   69 02                ADC #$02
E495   20 24 E0             JSR LE024
E498   A5 92                LDA $92
E49A   C9 06                CMP #$06
E49C   90 05                BCC LE4A3
E49E   A9 52      LE49E     LDA #$52
E4A0   20 B2 C2             JSR LC2B2
E4A3   A5 93      LE4A3     LDA $93
E4A5   38                   SEC
E4A6   E5 80                SBC $80
E4A8   B0 03                BCS LE4AD
E4AA   E9 0F                SBC #$0F
E4AC   18                   CLC
E4AD   85 71      LE4AD     STA $71
E4AF   A5 92                LDA $92
E4B1   E5 7F                SBC $7F
E4B3   85 72                STA $72
E4B5   A2 00                LDX #$00
E4B7   86 6F                STX $6F
E4B9   86 70                STX $70
E4BB   AA                   TAX
E4BC   20 8C E0             JSR LE08C
E4BF   A5 70                LDA $70
E4C1   D0 07                BNE LE4CA
E4C3   A6 6F                LDX $6F
E4C5   CA                   DEX
E4C6   D0 02                BNE LE4CA
E4C8   E6 81                INC $81
E4CA   CD 73 02   LE4CA     CMP $0273
E4CD   90 09                BCC LE4D8
E4CF   D0 CD                BNE LE49E
E4D1   AD 72 02             LDA $0272
E4D4   C5 6F                CMP $6F
E4D6   90 C6                BCC LE49E
E4D8   A9 01      LE4D8     LDA #$01
E4DA   20 49 D6             JSR LD649
E4DD   18                   CLC
E4DE   69 01                ADC #$01
E4E0   A6 7B                LDX $7B
E4E2   95 C2                STA $C2,X
E4E4   20 89 EF             JSR LEF89
E4E7   20 38 DF             JSR LDF38
E4EA   A5 81                LDA $81
E4EC   D0 15                BNE LE503
E4EE   20 99 DF             JSR LDF99
E4F1   20 D4 CF   LE4F1     JSR LCFD4
E4F4   20 05 D8             JSR LD805
E4F7   20 89 EF             JSR LEF89
E4FA   20 38 DF             JSR LDF38
E4FD   20 1D E4             JSR LE41D
E500   4C 0F E5             JMP LE50F
E503   20 D4 CF   LE503     JSR LCFD4
E506   20 05 D8             JSR LD805
E509   20 1D E4             JSR LE41D
E50C   20 54 DF             JSR LDF54
E50F   20 99 DF   LE50F     JSR LDF99
E512   20 47 DF             JSR LDF47
E515   A5 79                LDA $79
E517   48                   PHA
E518   A5 7A                LDA $7A
E51A   48                   PHA
E51B   20 79 DF             JSR LDF79
E51E   A5 7A                LDA $7A
E520   48                   PHA
E521   A5 79                LDA $79
E523   48                   PHA
E524   20 80 E0             JSR LE080
E527   AA                   TAX
E528   D0 0A                BNE LE534
E52A   20 89 E5             JSR LE589
E52D   A9 10                LDA #$10
E52F   20 24 E0             JSR LE024
E532   E6 7F                INC $7F
E534   68         LE534     PLA
E535   20 C8 DE             JSR LDEC8
E538   68                   PLA
E539   20 C8 DE             JSR LDEC8
E53C   68                   PLA
E53D   85 7A                STA $7A
E53F   68                   PLA
E540   85 79                STA $79
E542   F0 0F                BEQ LE553
E544   A5 7F                LDA $7F
E546   C5 92                CMP $92
E548   D0 A7                BNE LE4F1
E54A   20 80 E0             JSR LE080
E54D   C5 93                CMP $93
E54F   90 A0                BCC LE4F1
E551   F0 B0                BEQ LE503
E553   20 80 E0   LE553     JSR LE080
E556   48                   PHA
E557   A9 00                LDA #$00
E559   20 17 E0             JSR LE017
E55C   A9 00                LDA #$00
E55E   A8                   TAY
E55F   91 8D                STA ($8D),Y
E561   C8                   INY
E562   68                   PLA
E563   38                   SEC
E564   E9 01                SBC #$01
E566   91 8D                STA ($8D),Y
E568   20 A7 DF             JSR LDFA7
E56B   20 EC D6             JSR LD6EC
E56E   20 5F ED             JSR LED5F
E571   20 FD CE             JSR LCEFD
E574   20 D4 CF             JSR LCFD4
E577   20 33 E0             JSR LE033
E57A   70 03                BVS LE57F
E57C   4C B0 E3             JMP LE3B0
E57F   A9 80      LE57F     LDA #$80
E581   20 D2 DE             JSR LDED2
E584   A9 50                LDA #$50
E586   20 B2 C2             JSR LC2B2
E589   20 89 EF   LE589     JSR LEF89
E58C   20 D4 CF             JSR LCFD4
E58F   20 2C DF             JSR LDF2C
E592   20 CE E0             JSR LE0CE
E595   48                   PHA
E596   20 FC DF             JSR LDFFC
E599   A6 7B                LDX $7B
E59B   B5 CE                LDA $CE,X
E59D   A8                   TAY
E59E   68                   PLA
E59F   AA                   TAX
E5A0   A9 10                LDA #$10
E5A2   20 E0 DF             JSR LDFE0
E5A5   A9 00                LDA #$00
E5A7   20 17 E0             JSR LE017
E5AA   A0 02                LDY #$02
E5AC   B1 8D                LDA ($8D),Y
E5AE   48                   PHA
E5AF   A9 00                LDA #$00
E5B1   20 1B D6             JSR LD61B
E5B4   68                   PLA
E5B5   18                   CLC
E5B6   69 01                ADC #$01
E5B8   91 8D                STA ($8D),Y
E5BA   0A                   ASL A
E5BB   69 04                ADC #$04
E5BD   85 82                STA $82
E5BF   A8                   TAY
E5C0   38                   SEC
E5C1   E9 02                SBC #$02
E5C3   85 83                STA $83
E5C5   A5 79                LDA $79
E5C7   85 80                STA $80
E5C9   91 8D                STA ($8D),Y
E5CB   C8                   INY
E5CC   A5 7A                LDA $7A
E5CE   85 81                STA $81
E5D0   91 8D                STA ($8D),Y
E5D2   A0 00                LDY #$00
E5D4   98                   TYA
E5D5   91 8D                STA ($8D),Y
E5D7   C8                   INY
E5D8   A9 11                LDA #$11
E5DA   91 8D                STA ($8D),Y
E5DC   A9 10                LDA #$10
E5DE   20 1B D6             JSR LD61B
E5E1   20 8B DF             JSR LDF8B
E5E4   20 EC D6             JSR LD6EC
E5E7   A6 7B                LDX $7B
E5E9   B5 CE                LDA $CE,X
E5EB   48                   PHA
E5EC   20 D9 E0             JSR LE0D9
E5EF   A6 7B                LDX $7B
E5F1   95 CE                STA $CE,X
E5F3   68                   PLA
E5F4   AE 57 02             LDX $0257
E5F7   95 A8                STA $A8,X
E5F9   A9 00                LDA #$00
E5FB   20 1B D6             JSR LD61B
E5FE   A0 00                LDY #$00
E600   A5 79                LDA $79
E602   91 8D                STA ($8D),Y
E604   C8                   INY
E605   A5 7A                LDA $7A
E607   91 8D                STA ($8D),Y
E609   4C 19 E6             JMP LE619
E60C   20 CE E0   LE60C     JSR LE0CE
E60F   A6 7B                LDX $7B
E611   20 56 E0             JSR LE056
E614   A9 00                LDA #$00
E616   20 1B D6             JSR LD61B
E619   C6 83      LE619     DEC $83
E61B   C6 83                DEC $83
E61D   A4 82                LDY $82
E61F   A5 80                LDA $80
E621   91 8D                STA ($8D),Y
E623   C8                   INY
E624   A5 81                LDA $81
E626   91 8D                STA ($8D),Y
E628   20 99 DF             JSR LDF99
E62B   20 EC D6             JSR LD6EC
E62E   A4 83                LDY $83
E630   C0 03                CPY #$03
E632   B0 D8                BCS LE60C
E634   4C D4 CF             JMP LCFD4
E637   00                   BRK
E638   A0 4F                LDY #$4F
E63A   CB 20                SBX #$20
E63C   21 22                AND ($22,X)
E63E   23 24                RLA ($24,X)
E640   27 D2                RLA $D2
E642   45 41                EOR $41
E644   44 89                NOP $89
E646   52                   JAM
E647   83 20                SAX ($20,X)
E649   54 4F                NOP $4F,X
E64B   4F 20 4C             SRE $4C20
E64E   41 52                EOR ($52,X)
E650   47 C5                SRE $C5
E652   50 8B                BVC LE5DF
E654   06 20                ASL $20
E656   50 52                BVC LE6AA
E658   45 53                EOR $53
E65A   45 4E                EOR $4E
E65C   D4 51                NOP $51,X
E65E   CF 56 45             DCP $4556
E661   52                   JAM
E662   46 4C                LSR $4C
E664   4F 57 20             SRE $2057
E667   49 4E                EOR #$4E
E669   8B 25                ANE #$25
E66B   28                   PLP
E66C   8A                   TXA
E66D   89 26                NOP #$26
E66F   8A                   TXA
E670   20 50 52             JSR $5250
E673   4F 54 45             SRE $4554
E676   43 54                SRE ($54,X)
E678   20 4F CE             JSR LCE4F
E67B   29 88                AND #$88
E67D   20 49 44             JSR $4449
E680   85 30                STA $30
E682   31 32                AND ($32),Y
E684   33 34                RLA ($34),Y
E686   D3 59                DCP ($59),Y
E688   4E 54 41             LSR $4154
E68B   58                   CLI
E68C   89 60                NOP #$60
E68E   8A                   TXA
E68F   03 84                SLO ($84,X)
E691   63 83                RRA ($83,X)
E693   20 45 58             JSR $5845
E696   49 53                EOR #$53
E698   54 D3                NOP $D3,X
E69A   64 83                NOP $83
E69C   20 54 59             JSR $5954
E69F   50 45                BVC LE6E6
E6A1   85 65                STA $65
E6A3   CE 4F 20             DEC $204F
E6A6   42                   JAM
E6A7   4C 4F 43             JMP $434F
E6AA   CB 66      LE6AA     SBX #$66
E6AC   67 C9                RRA $C9
E6AE   4C 4C 45             JMP $454C
E6B1   47 41                SRE $41
E6B3   4C 20 54             JMP $5420
E6B6   52                   JAM
E6B7   41 43                EOR ($43,X)
E6B9   4B 20                ALR #$20
E6BB   4F 52 20             SRE $2052
E6BE   53 45                SRE ($45),Y
E6C0   43 54                SRE ($54,X)
E6C2   4F D2 61             SRE $61D2
E6C5   83 06                SAX ($06,X)
E6C7   84 39                STY $39
E6C9   62                   JAM
E6CA   83 06                SAX ($06,X)
E6CC   87 01                SAX $01
E6CE   83 53                SAX ($53,X)
E6D0   20 53 43             JSR $4353
E6D3   52                   JAM
E6D4   41 54                EOR ($54,X)
E6D6   43 48                SRE ($48,X)
E6D8   45 C4                EOR $C4
E6DA   70 CE                BVS LE6AA
E6DC   4F 20 43             SRE $4320
E6DF   48                   PHA
E6E0   41 4E                EOR ($4E,X)
E6E2   4E 45 CC             LSR $CC45
E6E5   71 C4                ADC ($C4),Y
E6E7   49 52                EOR #$52
E6E9   89 72                NOP #$72
E6EB   88                   DEY
E6EC   20 46 55             JSR $5546
E6EF   4C CC 73             JMP $73CC
E6F2   C3 42                DCP ($42,X)
E6F4   4D 20 44             EOR $4420
E6F7   4F 53 20             SRE $2053
E6FA   56 32                LSR $32,X
E6FC   2E 36 20             ROL $2036
E6FF   54 44                NOP $44,X
E701   49 53                EOR #$53
E703   CB 74                SBX #$74
E705   C4 52                CPY $52
E707   49 56                EOR #$56
E709   45 06                EOR $06
E70B   20 52 45             JSR $4552
E70E   41 44                EOR ($44,X)
E710   D9 09 C5             CMP $C509,Y
E713   52                   JAM
E714   52                   JAM
E715   4F D2 0A             SRE $0AD2
E718   D7 52                DCP $52,X
E71A   49 54                EOR #$54
E71C   C5 03                CMP $03
E71E   C6 49                DEC $49
E720   4C C5 04             JMP $04C5
E723   CF 50 45             DCP $4550
E726   CE 05 CD             DEC $CD05
E729   49 53                EOR #$53
E72B   4D 41 54             EOR $5441
E72E   43 C8                SRE ($C8,X)
E730   06 CE                ASL $CE
E732   4F D4 07             SRE $07D4
E735   C6 4F                DEC $4F
E737   55 4E                EOR $4E,X
E739   C4 08                CPY $08
E73B   C4 49                CPY $49
E73D   53 CB                SRE ($CB),Y
E73F   0B D2                ANC #$D2
E741   45 43                EOR $43
E743   4F 52 C4             SRE LC452
E746   48         LE746     PHA
E747   86 98                STX $98
E749   8A                   TXA
E74A   0A                   ASL A
E74B   AA                   TAX
E74C   B5 08                LDA $08,X
E74E   85 79                STA $79
E750   B5 09                LDA $09,X
E752   85 7A                STA $7A
E754   68                   PLA
E755   29 0F                AND #$0F
E757   F0 08                BEQ LE761
E759   C9 0F                CMP #$0F
E75B   D0 06                BNE LE763
E75D   A9 74                LDA #$74
E75F   D0 08                BNE LE769
E761   A9 06      LE761     LDA #$06
E763   09 20      LE763     ORA #$20
E765   AA                   TAX
E766   CA                   DEX
E767   CA                   DEX
E768   8A                   TXA
E769   48         LE769     PHA
E76A   AD 2A 02             LDA $022A
E76D   C9 00                CMP #$00
E76F   D0 0F                BNE LE780
E771   A9 FF                LDA #$FF
E773   8D 2A 02             STA $022A
E776   68                   PLA
E777   20 06 E8             JSR LE806
E77A   20 5E D1             JSR LD15E
E77D   4C 84 E7             JMP LE784
E780   68         LE780     PLA
E781   20 06 E8   LE781     JSR LE806
E784   20 A7 C2   LE784     JSR LC2A7
E787   A9 00                LDA #$00
E789   8D F9 02             STA $02F9
E78C   20 F7 F3             JSR LF3F7
E78F   20 2D D6             JSR LD62D
E792   A9 00                LDA #$00
E794   85 A4                STA $A4
E796   A2 FF                LDX #$FF
E798   9A                   TXS
E799   A5 7D                LDA $7D
E79B   29 0F                AND #$0F
E79D   85 7C                STA $7C
E79F   C9 0F                CMP #$0F
E7A1   F0 31                BEQ LE7D4
E7A3   A5 5C                LDA $5C
E7A5   D0 1D                BNE LE7C4
E7A7   A5 5B                LDA $5B
E7A9   D0 10                BNE LE7BB
E7AB   A6 7C                LDX $7C
E7AD   BD 2B 02             LDA $022B,X
E7B0   C9 FF                CMP #$FF
E7B2   F0 20                BEQ LE7D4
E7B4   29 0F                AND #$0F
E7B6   85 7B                STA $7B
E7B8   4C CA E7             JMP LE7CA
E7BB   20 FB D1   LE7BB     JSR LD1FB
E7BE   20 CD C1             JSR LC1CD
E7C1   4C CA E7             JMP LE7CA
E7C4   20 17 D2   LE7C4     JSR LD217
E7C7   20 D8 C1             JSR LC1D8
E7CA   20 35 D2   LE7CA     JSR LD235
E7CD   C9 04                CMP #$04
E7CF   B0 03                BCS LE7D4
E7D1   20 7D D3             JSR LD37D
E7D4   A2 FF      LE7D4     LDX #$FF
E7D6   9A                   TXS
E7D7   4C BD EA             JMP LEABD
E7DA   AA         LE7DA     TAX
E7DB   A9 00                LDA #$00
E7DD   F8                   SED
E7DE   E0 00      LE7DE     CPX #$00
E7E0   F0 07                BEQ LE7E9
E7E2   18                   CLC
E7E3   69 01                ADC #$01
E7E5   CA                   DEX
E7E6   4C DE E7             JMP LE7DE
E7E9   D8         LE7E9     CLD
E7EA   AA         LE7EA     TAX
E7EB   4A                   LSR A
E7EC   4A                   LSR A
E7ED   4A                   LSR A
E7EE   4A                   LSR A
E7EF   20 F3 E7             JSR LE7F3
E7F2   8A                   TXA
E7F3   29 0F      LE7F3     AND #$0F
E7F5   09 30                ORA #$30
E7F7   91 A6                STA ($A6),Y
E7F9   C8                   INY
E7FA   60                   RTS
E7FB   20 F0 F3   LE7FB     JSR LF3F0
E7FE   A9 00                LDA #$00
E800   A0 00      LE800     LDY #$00
E802   84 79                STY $79
E804   84 7A                STY $7A
E806   A0 00      LE806     LDY #$00
E808   A2 D5                LDX #$D5
E80A   86 A6                STX $A6
E80C   A2 02                LDX #$02
E80E   86 A7                STX $A7
E810   20 EA E7             JSR LE7EA
E813   A9 2C                LDA #$2C
E815   91 A6                STA ($A6),Y
E817   C8                   INY
E818   AD D5 02             LDA $02D5
E81B   8D 43 02             STA $0243
E81E   8A                   TXA
E81F   20 45 E8             JSR LE845
E822   A9 2C                LDA #$2C
E824   91 A6                STA ($A6),Y
E826   C8                   INY
E827   A5 79                LDA $79
E829   20 DA E7             JSR LE7DA
E82C   A9 2C                LDA #$2C
E82E   91 A6                STA ($A6),Y
E830   C8                   INY
E831   A5 7A                LDA $7A
E833   20 DA E7             JSR LE7DA
E836   88                   DEY
E837   98                   TYA
E838   18                   CLC
E839   69 D5                ADC #$D5
E83B   8D 49 02             STA $0249
E83E   E6 A6                INC $A6
E840   A9 88                LDA #$88
E842   85 F8                STA $F8
E844   60                   RTS
E845   AA         LE845     TAX
E846   A5 7F                LDA $7F
E848   48                   PHA
E849   A5 80                LDA $80
E84B   48                   PHA
E84C   A9 37                LDA #$37
E84E   85 7F                STA $7F
E850   A9 E6                LDA #$E6
E852   85 80                STA $80
E854   8A                   TXA
E855   A2 00                LDX #$00
E857   C1 7F      LE857     CMP ($7F,X)
E859   F0 21                BEQ LE87C
E85B   48                   PHA
E85C   20 B4 E8             JSR LE8B4
E85F   90 05                BCC LE866
E861   20 B4 E8   LE861     JSR LE8B4
E864   90 FB                BCC LE861
E866   A5 80      LE866     LDA $80
E868   C9 E7                CMP #$E7
E86A   90 08                BCC LE874
E86C   D0 0A                BNE LE878
E86E   A9 46                LDA #$46
E870   C5 7F                CMP $7F
E872   90 04                BCC LE878
E874   68         LE874     PLA
E875   4C 57 E8             JMP LE857
E878   68         LE878     PLA
E879   4C 8C E8             JMP LE88C
E87C   20 A6 E8   LE87C     JSR LE8A6
E87F   90 FB                BCC LE87C
E881   20 93 E8   LE881     JSR LE893
E884   20 A6 E8             JSR LE8A6
E887   90 F8                BCC LE881
E889   20 93 E8             JSR LE893
E88C   68         LE88C     PLA
E88D   85 80                STA $80
E88F   68                   PLA
E890   85 7F                STA $7F
E892   60                   RTS
E893   C9 20      LE893     CMP #$20
E895   B0 0B                BCS LE8A2
E897   AA                   TAX
E898   A9 20                LDA #$20
E89A   91 A6                STA ($A6),Y
E89C   C8                   INY
E89D   8A                   TXA
E89E   20 45 E8             JSR LE845
E8A1   60                   RTS
E8A2   91 A6      LE8A2     STA ($A6),Y
E8A4   C8                   INY
E8A5   60                   RTS
E8A6   E6 7F      LE8A6     INC $7F
E8A8   D0 02                BNE LE8AC
E8AA   E6 80                INC $80
E8AC   A1 7F      LE8AC     LDA ($7F,X)
E8AE   0A                   ASL A
E8AF   A1 7F                LDA ($7F,X)
E8B1   29 7F                AND #$7F
E8B3   60                   RTS
E8B4   20 AC E8   LE8B4     JSR LE8AC
E8B7   E6 7F                INC $7F
E8B9   D0 02                BNE LE8BD
E8BB   E6 80                INC $80
E8BD   60         LE8BD     RTS
E8BE   60         LE8BE     RTS
E8BF   4C BE E8             JMP LE8BE
E8C2   58                   CLI
E8C3   EE 78 02             INC $0278
E8C6   EE 74 02             INC $0274
E8C9   A9 2A                LDA #$2A
E8CB   8D 00 02             STA $0200
E8CE   4C D9 E8             JMP LE8D9
E8D1   A9 01                LDA #$01
E8D3   8D 7A 02             STA $027A
E8D6   20 FC C3             JSR LC3FC
E8D9   AD 78 02   LE8D9     LDA $0278
E8DC   48                   PHA
E8DD   A9 01                LDA #$01
E8DF   8D 78 02             STA $0278
E8E2   A9 FF                LDA #$FF
E8E4   85 7F                STA $7F
E8E6   20 3A C5             JSR LC53A
E8E9   AD 80 02             LDA $0280
E8EC   D0 05                BNE LE8F3
E8EE   A9 39                LDA #$39
E8F0   20 B2 C2             JSR LC2B2
E8F3   68         LE8F3     PLA
E8F4   8D 78 02             STA $0278
E8F7   AD 80 02             LDA $0280
E8FA   85 79                STA $79
E8FC   AD 85 02             LDA $0285
E8FF   85 7A                STA $7A
E901   A9 03                LDA #$03
E903   20 CA D5             JSR LD5CA
E906   A9 00      LE906     LDA #$00
E908   85 80                STA $80
E90A   20 67 E9             JSR LE967
E90D   85 81                STA $81
E90F   20 79 E9             JSR LE979
E912   20 67 E9             JSR LE967
E915   85 82                STA $82
E917   20 79 E9             JSR LE979
E91A   A5 7F                LDA $7F
E91C   F0 0A                BEQ LE928
E91E   A5 81                LDA $81
E920   48                   PHA
E921   A5 82                LDA $82
E923   48                   PHA
E924   A9 00                LDA #$00
E926   85 7F                STA $7F
E928   20 67 E9   LE928     JSR LE967
E92B   85 83                STA $83
E92D   20 79 E9             JSR LE979
E930   20 67 E9   LE930     JSR LE967
E933   A0 00                LDY #$00
E935   91 81                STA ($81),Y
E937   20 79 E9             JSR LE979
E93A   A5 81                LDA $81
E93C   18                   CLC
E93D   69 01                ADC #$01
E93F   85 81                STA $81
E941   90 02                BCC LE945
E943   E6 82                INC $82
E945   C6 83      LE945     DEC $83
E947   D0 E7                BNE LE930
E949   20 2A CB             JSR LCB2A
E94C   A5 7E                LDA $7E
E94E   C5 80                CMP $80
E950   F0 08                BEQ LE95A
E952   20 79 DF             JSR LDF79
E955   A9 50                LDA #$50
E957   20 81 E7             JSR LE781
E95A   A5 95      LE95A     LDA $95
E95C   D0 A8                BNE LE906
E95E   68                   PLA
E95F   85 82                STA $82
E961   68                   PLA
E962   85 81                STA $81
E964   6C 81 00             JMP ($0081)
E967   20 2A CB   LE967     JSR LCB2A
E96A   A5 95                LDA $95
E96C   D0 08                BNE LE976
E96E   20 79 DF             JSR LDF79
E971   A9 51                LDA #$51
E973   20 81 E7             JSR LE781
E976   A5 7E      LE976     LDA $7E
E978   60                   RTS
E979   18         LE979     CLC
E97A   65 80                ADC $80
E97C   69 00                ADC #$00
E97E   85 80                STA $80
E980   60                   RTS
E981   A2 00      LE981     LDX #$00
E983   2C A6 6E             BIT $6EA6
E986   9A                   TXS
E987   BA         LE987     TSX
E988   A9 6F      LE988     LDA #$6F
E98A   85 00                STA $00
E98C   29 60                AND #$60
E98E   85 01                STA $01
E990   98                   TYA
E991   18         LE991     CLC
E992   69 01      LE992     ADC #$01
E994   D0 FC                BNE LE992
E996   88                   DEY
E997   D0 F8                BNE LE991
E999   A9 68                LDA #$68
E99B   85 01                STA $01
E99D   98         LE99D     TYA
E99E   18         LE99E     CLC
E99F   69 01      LE99F     ADC #$01
E9A1   D0 FC                BNE LE99F
E9A3   88                   DEY
E9A4   D0 F8                BNE LE99E
E9A6   CA                   DEX
E9A7   10 DF                BPL LE988
E9A9   E0 F4                CPX #$F4
E9AB   D0 F0                BNE LE99D
E9AD   F0 D8                BEQ LE987
E9AF   4C 84 E9   LE9AF     JMP LE984
E9B2   4C 81 E9   LE9B2     JMP LE981
E9B5   78                   SEI
E9B6   D8                   CLD
E9B7   A0 00                LDY #$00
E9B9   A2 02                LDX #$02
E9BB   8A         LE9BB     TXA
E9BC   95 00                STA $00,X
E9BE   E8                   INX
E9BF   D0 FA                BNE LE9BB
E9C1   A2 02                LDX #$02
E9C3   8A         LE9C3     TXA
E9C4   D5 00                CMP $00,X
E9C6   D0 EA                BNE LE9B2
E9C8   F6 00      LE9C8     INC $00,X
E9CA   C8                   INY
E9CB   D0 FB                BNE LE9C8
E9CD   D5 00                CMP $00,X
E9CF   D0 E1                BNE LE9B2
E9D1   94 00                STY $00,X
E9D3   B5 00                LDA $00,X
E9D5   D0 DB                BNE LE9B2
E9D7   E8                   INX
E9D8   D0 E9                BNE LE9C3
E9DA   E6 6E                INC $6E
E9DC   86 75                STX $75
E9DE   A9 00                LDA #$00
E9E0   85 74                STA $74
E9E2   A8                   TAY
E9E3   A2 40                LDX #$40
E9E5   18                   CLC
E9E6   C6 75      LE9E6     DEC $75
E9E8   71 74      LE9E8     ADC ($74),Y
E9EA   C8                   INY
E9EB   D0 FB                BNE LE9E8
E9ED   CA                   DEX
E9EE   D0 F6                BNE LE9E6
E9F0   85 61                STA $61
E9F2   69 FF                ADC #$FF
E9F4   D0 B9                BNE LE9AF
E9F6   A9 01                LDA #$01
E9F8   85 75                STA $75
E9FA   E6 6E                INC $6E
E9FC   A2 07                LDX #$07
E9FE   98         LE9FE     TYA
E9FF   18                   CLC
EA00   65 75                ADC $75
EA02   91 74                STA ($74),Y
EA04   C8                   INY
EA05   D0 F7                BNE LE9FE
EA07   E6 75                INC $75
EA09   CA                   DEX
EA0A   D0 F2                BNE LE9FE
EA0C   A2 07                LDX #$07
EA0E   C6 75      LEA0E     DEC $75
EA10   88         LEA10     DEY
EA11   98                   TYA
EA12   18                   CLC
EA13   65 75                ADC $75
EA15   D1 74                CMP ($74),Y
EA17   D0 12                BNE LEA2B
EA19   49 FF                EOR #$FF
EA1B   91 74                STA ($74),Y
EA1D   51 74                EOR ($74),Y
EA1F   91 74                STA ($74),Y
EA21   D0 08                BNE LEA2B
EA23   98                   TYA
EA24   D0 EA                BNE LEA10
EA26   CA                   DEX
EA27   D0 E5                BNE LEA0E
EA29   F0 03                BEQ LEA2E
EA2B   4C AF E9   LEA2B     JMP LE9AF
EA2E   A2 FF      LEA2E     LDX #$FF
EA30   86 95                STX $95
EA32   9A                   TXS
EA33   20 C6 C3             JSR LC3C6
EA36   20 3D F1             JSR LF13D
EA39   A9 11                LDA #$11
EA3B   85 68                STA $68
EA3D   A9 05                LDA #$05
EA3F   85 69                STA $69
EA41   A2 00                LDX #$00
EA43   A0 00                LDY #$00
EA45   A9 00      LEA45     LDA #$00
EA47   95 9A                STA $9A,X
EA49   E8                   INX
EA4A   B9 23 F1             LDA $F123,Y
EA4D   95 9A                STA $9A,X
EA4F   E8                   INX
EA50   C8                   INY
EA51   C0 05                CPY #$05
EA53   D0 F0                BNE LEA45
EA55   A9 00                LDA #$00
EA57   95 9A                STA $9A,X
EA59   E8                   INX
EA5A   A9 02                LDA #$02
EA5C   95 9A                STA $9A,X
EA5E   E8                   INX
EA5F   A9 D5                LDA #$D5
EA61   95 9A                STA $9A,X
EA63   E8                   INX
EA64   A9 02                LDA #$02
EA66   95 9A                STA $9A,X
EA68   A9 FF                LDA #$FF
EA6A   A2 12                LDX #$12
EA6C   9D 2B 02   LEA6C     STA $022B,X
EA6F   CA                   DEX
EA70   10 FA                BPL LEA6C
EA72   A2 05                LDX #$05
EA74   95 A8      LEA74     STA $A8,X
EA76   95 AF                STA $AF,X
EA78   95 CE                STA $CE,X
EA7A   CA                   DEX
EA7B   10 F7                BPL LEA74
EA7D   A9 05                LDA #$05
EA7F   85 AC                STA $AC
EA81   A9 06                LDA #$06
EA83   85 AD                STA $AD
EA85   A9 FF                LDA #$FF
EA87   85 AE                STA $AE
EA89   85 B5                STA $B5
EA8B   A9 05                LDA #$05
EA8D   8D 3B 02             STA $023B
EA90   A9 84                LDA #$84
EA92   8D 3A 02             STA $023A
EA95   A9 0F                LDA #$0F
EA97   8D 56 02             STA $0256
EA9A   A9 01                LDA #$01
EA9C   85 F7                STA $F7
EA9E   A9 88                LDA #$88
EAA0   85 F8                STA $F8
EAA2   A9 E0                LDA #$E0
EAA4   8D 4F 02             STA $024F
EAA7   A9 FF                LDA #$FF
EAA9   8D 50 02             STA $0250
EAAC   A9 01                LDA #$01
EAAE   85 22                STA $22
EAB0   85 23                STA $23
EAB2   20 55 CC             JSR LCC55
EAB5   20 B0 CF             JSR LCFB0
EAB8   A9 73                LDA #$73
EABA   20 00 E8             JSR LE800
EABD   E6 61      LEABD     INC $61
EABF   D0 03                BNE LEAC4
EAC1   20 DC EA             JSR LEADC
EAC4   AD 00 40   LEAC4     LDA $4000
EAC7   10 03                BPL LEACC
EAC9   20 22 C0             JSR LC022
EACC   AD 55 02   LEACC     LDA $0255
EACF   F0 EC                BEQ LEABD
EAD1   A9 00                LDA #$00
EAD3   8D 55 02             STA $0255
EAD6   20 30 C2             JSR LC230
EAD9   4C BD EA             JMP LEABD
EADC   A9 0E      LEADC     LDA #$0E
EADE   85 63                STA $63
EAE0   A9 00                LDA #$00
EAE2   85 62                STA $62
EAE4   A6 63      LEAE4     LDX $63
EAE6   BD 2B 02             LDA $022B,X
EAE9   C9 FF                CMP #$FF
EAEB   F0 02                BEQ LEAEF
EAED   E6 62                INC $62
EAEF   C6 63      LEAEF     DEC $63
EAF1   10 F1                BPL LEAE4
EAF3   A5 62                LDA $62
EAF5   F0 07                BEQ LEAFE
EAF7   A5 22                LDA $22
EAF9   F0 03                BEQ LEAFE
EAFB   20 65 D4             JSR LD465
EAFE   AE 6C 02   LEAFE     LDX $026C
EB01   F0 03                BEQ LEB06
EB03   4C F7 F3             JMP LF3F7
EB06   A5 62      LEB06     LDA $62
EB08   85 96                STA $96
EB0A   60                   RTS
EB0B   A9 00      LEB0B     LDA #$00
EB0D   85 7C                STA $7C
EB0F   A9 01                LDA #$01
EB11   20 38 D3             JSR LD338
EB14   A9 00                LDA #$00
EB16   20 1B D6             JSR LD61B
EB19   A6 7B                LDX $7B
EB1B   A9 00                LDA #$00
EB1D   9D 44 02             STA $0244,X
EB20   20 CE E0             JSR LE0CE
EB23   AA                   TAX
EB24   A5 78                LDA $78
EB26   9D 5B 02             STA $025B,X
EB29   A9 01                LDA #$01
EB2B   20 0D D1             JSR LD10D
EB2E   A9 04                LDA #$04
EB30   20 0D D1             JSR LD10D
EB33   A9 01                LDA #$01
EB35   20 0D D1             JSR LD10D
EB38   20 0D D1             JSR LD10D
EB3B   AD 72 02             LDA $0272
EB3E   20 0D D1             JSR LD10D
EB41   A9 00                LDA #$00
EB43   20 0D D1             JSR LD10D
EB46   20 C6 EB             JSR LEBC6
EB49   20 CE E0             JSR LE0CE
EB4C   0A                   ASL A
EB4D   AA                   TAX
EB4E   D6 9A                DEC $9A,X
EB50   D6 9A                DEC $9A,X
EB52   A9 00                LDA #$00
EB54   20 0D D1             JSR LD10D
EB57   A9 01      LEB57     LDA #$01
EB59   20 0D D1             JSR LD10D
EB5C   20 0D D1             JSR LD10D
EB5F   20 AF C7             JSR LC7AF
EB62   90 2C                BCC LEB90
EB64   AD 72 02             LDA $0272
EB67   20 0D D1             JSR LD10D
EB6A   AD 73 02             LDA $0273
EB6D   20 0D D1             JSR LD10D
EB70   20 C6 EB             JSR LEBC6
EB73   A9 00                LDA #$00
EB75   20 0D D1             JSR LD10D
EB78   D0 DD                BNE LEB57
EB7A   20 CE E0   LEB7A     JSR LE0CE
EB7D   0A                   ASL A
EB7E   AA                   TAX
EB7F   A9 00                LDA #$00
EB81   95 9A                STA $9A,X
EB83   A9 88                LDA #$88
EB85   A4 7B                LDY $7B
EB87   8D 54 02             STA $0254
EB8A   99 F3 00             STA $00F3,Y
EB8D   A5 7E                LDA $7E
EB8F   60                   RTS
EB90   AD 72 02   LEB90     LDA $0272
EB93   20 0D D1             JSR LD10D
EB96   AD 73 02             LDA $0273
EB99   20 0D D1             JSR LD10D
EB9C   20 C6 EB             JSR LEBC6
EB9F   20 CE E0             JSR LE0CE
EBA2   0A                   ASL A
EBA3   AA                   TAX
EBA4   D6 9A                DEC $9A,X
EBA6   D6 9A                DEC $9A,X
EBA8   A9 00                LDA #$00
EBAA   20 0D D1             JSR LD10D
EBAD   20 0D D1             JSR LD10D
EBB0   20 0D D1             JSR LD10D
EBB3   20 CE E0             JSR LE0CE
EBB6   0A                   ASL A
EBB7   A8                   TAY
EBB8   B9 9A 00             LDA $009A,Y
EBBB   A6 7B                LDX $7B
EBBD   9D 44 02             STA $0244,X
EBC0   DE 44 02             DEC $0244,X
EBC3   4C 7A EB             JMP LEB7A
EBC6   A0 00      LEBC6     LDY #$00
EBC8   B9 B1 02   LEBC8     LDA $02B1,Y
EBCB   20 0D D1             JSR LD10D
EBCE   C8                   INY
EBCF   C0 1B                CPY #$1B
EBD1   D0 F5                BNE LEBC8
EBD3   60                   RTS
EBD4   20 47 D2   LEBD4     JSR LD247
EBD7   F0 01                BEQ LEBDA
EBD9   60                   RTS
EBDA   85 7E      LEBDA     STA $7E
EBDC   A4 7B                LDY $7B
EBDE   B9 44 02             LDA $0244,Y
EBE1   F0 08                BEQ LEBEB
EBE3   A9 80                LDA #$80
EBE5   99 F3 00             STA $00F3,Y
EBE8   A5 7E                LDA $7E
EBEA   60                   RTS
EBEB   48         LEBEB     PHA
EBEC   20 57 EB             JSR LEB57
EBEF   68                   PLA
EBF0   60                   RTS
EBF1   20 BB C2             JSR LC2BB
EBF4   20 5E D1             JSR LD15E
EBF7   A9 40                LDA #$40
EBF9   8D F9 02             STA $02F9
EBFC   20 22 ED             JSR LED22
EBFF   A9 00                LDA #$00
EC01   8D 92 02             STA $0292
EC04   20 91 C6             JSR LC691
EC07   D0 3D                BNE LEC46
EC09   A9 00      LEC09     LDA #$00
EC0B   85 7A                STA $7A
EC0D   AD C3 F0             LDA $F0C3
EC10   85 79                STA $79
EC12   20 52 EC             JSR LEC52
EC15   A9 00                LDA #$00
EC17   8D F9 02             STA $02F9
EC1A   20 6A ED             JSR LED6A
EC1D   4C 7E C2             JMP LC27E
EC20   C8         LEC20     INY
EC21   B1 8D                LDA ($8D),Y
EC23   48                   PHA
EC24   C8                   INY
EC25   B1 8D                LDA ($8D),Y
EC27   48                   PHA
EC28   A0 13                LDY #$13
EC2A   B1 8D                LDA ($8D),Y
EC2C   F0 0A                BEQ LEC38
EC2E   85 79                STA $79
EC30   C8                   INY
EC31   B1 8D                LDA ($8D),Y
EC33   85 7A                STA $7A
EC35   20 52 EC             JSR LEC52
EC38   68         LEC38     PLA
EC39   85 7A                STA $7A
EC3B   68                   PLA
EC3C   85 79                STA $79
EC3E   20 52 EC             JSR LEC52
EC41   20 E9 C6   LEC41     JSR LC6E9
EC44   F0 C3                BEQ LEC09
EC46   A0 00      LEC46     LDY #$00
EC48   B1 8D                LDA ($8D),Y
EC4A   30 D4                BMI LEC20
EC4C   20 97 C9             JSR LC997
EC4F   4C 41 EC             JMP LEC41
EC52   20 B0 D6   LEC52     JSR LD6B0
EC55   20 FB ED             JSR LEDFB
EC58   20 C8 D5             JSR LD5C8
EC5B   A9 00      LEC5B     LDA #$00
EC5D   20 1B D6             JSR LD61B
EC60   20 47 D2             JSR LD247
EC63   85 79                STA $79
EC65   20 47 D2             JSR LD247
EC68   85 7A                STA $7A
EC6A   A5 79                LDA $79
EC6C   D0 03                BNE LEC71
EC6E   4C 7D D3             JMP LD37D
EC71   20 FB ED   LEC71     JSR LEDFB
EC74   20 A0 D5             JSR LD5A0
EC77   4C 5B EC             JMP LEC5B
EC7A   20 FC C3             JSR LC3FC
EC7D   A5 E3                LDA $E3
EC7F   10 05                BPL LEC86
EC81   A9 33                LDA #$33
EC83   4C B2 C2             JMP LC2B2
EC86   29 01      LEC86     AND #$01
EC88   85 78                STA $78
EC8A   AA                   TAX
EC8B   A0 00                LDY #$00
EC8D   94 5F                STY $5F,X
EC8F   0A                   ASL A
EC90   AA                   TAX
EC91   AC 7B 02             LDY $027B
EC94   CC 74 02             CPY $0274
EC97   F0 1A                BEQ LECB3
EC99   B9 00 02             LDA $0200,Y
EC9C   95 14                STA $14,X
EC9E   B9 01 02             LDA $0201,Y
ECA1   95 15                STA $15,X
ECA3   20 59 D4             JSR LD459
ECA6   A9 01                LDA #$01
ECA8   85 79                STA $79
ECAA   20 A7 C9             JSR LC9A7
ECAD   20 70 EE             JSR LEE70
ECB0   4C C2 EC             JMP LECC2
ECB3   20 5E D1   LECB3     JSR LD15E
ECB6   A6 78                LDX $78
ECB8   B5 5D                LDA $5D,X
ECBA   CD 18 F1             CMP $F118
ECBD   F0 03                BEQ LECC2
ECBF   4C C3 D6             JMP LD6C3
ECC2   20 22 ED   LECC2     JSR LED22
ECC5   A5 98                LDA $98
ECC7   A8                   TAY
ECC8   0A                   ASL A
ECC9   AA                   TAX
ECCA   AD C6 F0             LDA $F0C6
ECCD   95 9A                STA $9A,X
ECCF   AE 7A 02             LDX $027A
ECD2   A9 1B                LDA #$1B
ECD4   20 4F C7             JSR LC74F
ECD7   A0 12                LDY #$12
ECD9   A6 78                LDX $78
ECDB   AD 18 F1             LDA $F118
ECDE   95 5D                STA $5D,X
ECE0   8A                   TXA
ECE1   0A                   ASL A
ECE2   AA                   TAX
ECE3   B5 14                LDA $14,X
ECE5   91 8D                STA ($8D),Y
ECE7   C8                   INY
ECE8   B5 15                LDA $15,X
ECEA   91 8D                STA ($8D),Y
ECEC   C8                   INY
ECED   C8                   INY
ECEE   A9 32                LDA #$32
ECF0   91 8D                STA ($8D),Y
ECF2   C8                   INY
ECF3   AD 18 F1             LDA $F118
ECF6   91 8D                STA ($8D),Y
ECF8   A0 02                LDY #$02
ECFA   91 6C                STA ($6C),Y
ECFC   AD C3 F0             LDA $F0C3
ECFF   85 79                STA $79
ED01   20 FE ED             JSR LEDFE
ED04   A9 01                LDA #$01
ED06   85 7A                STA $7A
ED08   20 FE ED             JSR LEDFE
ED0B   20 6A ED             JSR LED6A
ED0E   20 70 EE             JSR LEE70
ED11   A0 01                LDY #$01
ED13   A9 FF                LDA #$FF
ED15   91 6C                STA ($6C),Y
ED17   20 B7 D5             JSR LD5B7
ED1A   C6 7A                DEC $7A
ED1C   20 B3 D5             JSR LD5B3
ED1F   4C 7E C2             JMP LC27E
ED22   20 3C EF   LED22     JSR LEF3C
ED25   A0 00                LDY #$00
ED27   A9 12                LDA #$12
ED29   91 6C                STA ($6C),Y
ED2B   C8                   INY
ED2C   98                   TYA
ED2D   91 6C                STA ($6C),Y
ED2F   C8                   INY
ED30   C8                   INY
ED31   C8                   INY
ED32   A9 00      LED32     LDA #$00
ED34   85 6E                STA $6E
ED36   85 6F                STA $6F
ED38   85 70                STA $70
ED3A   98                   TYA
ED3B   4A                   LSR A
ED3C   4A                   LSR A
ED3D   20 B6 F0             JSR LF0B6
ED40   91 6C                STA ($6C),Y
ED42   C8                   INY
ED43   AA                   TAX
ED44   38         LED44     SEC
ED45   26 6E                ROL $6E
ED47   26 6F                ROL $6F
ED49   26 70                ROL $70
ED4B   CA                   DEX
ED4C   D0 F6                BNE LED44
ED4E   B5 6E      LED4E     LDA $6E,X
ED50   91 6C                STA ($6C),Y
ED52   C8                   INY
ED53   E8                   INX
ED54   E0 03                CPX #$03
ED56   90 F6                BCC LED4E
ED58   C0 90                CPY #$90
ED5A   90 D6                BCC LED32
ED5C   4C 85 D1             JMP LD185
ED5F   20 CE E0   LED5F     JSR LE0CE
ED62   AA                   TAX
ED63   BD 5B 02             LDA $025B,X
ED66   29 01                AND #$01
ED68   85 78                STA $78
ED6A   A4 78      LED6A     LDY $78
ED6C   B9 51 02             LDA $0251,Y
ED6F   D0 01                BNE LED72
ED71   60                   RTS
ED72   A9 00      LED72     LDA #$00
ED74   99 51 02             STA $0251,Y
ED77   20 A5 ED             JSR LEDA5
ED7A   A5 78                LDA $78
ED7C   0A                   ASL A
ED7D   48                   PHA
ED7E   20 10 EF             JSR LEF10
ED81   68                   PLA
ED82   18                   CLC
ED83   69 01                ADC #$01
ED85   20 10 EF             JSR LEF10
ED88   A5 79                LDA $79
ED8A   48                   PHA
ED8B   A9 01                LDA #$01
ED8D   85 79                STA $79
ED8F   0A         LED8F     ASL A
ED90   0A                   ASL A
ED91   85 6C                STA $6C
ED93   20 8B F0             JSR LF08B
ED96   E6 79                INC $79
ED98   A5 79                LDA $79
ED9A   CD 1A F1             CMP $F11A
ED9D   90 F0                BCC LED8F
ED9F   68                   PLA
EDA0   85 79                STA $79
EDA2   4C DD D6             JMP LD6DD
EDA5   20 7A EF   LEDA5     JSR LEF7A
EDA8   AA                   TAX
EDA9   20 4A EF             JSR LEF4A
EDAC   A6 98                LDX $98
EDAE   BD 23 F1             LDA $F123,X
EDB1   85 6D                STA $6D
EDB3   A9 00                LDA #$00
EDB5   85 6C                STA $6C
EDB7   60                   RTS
EDB8   A6 78      LEDB8     LDX $78
EDBA   BD FA 02             LDA $02FA,X
EDBD   8D 72 02             STA $0272
EDC0   BD FC 02             LDA $02FC,X
EDC3   8D 73 02             STA $0273
EDC6   60                   RTS
EDC7   20 5C EE             JSR LEE5C
EDCA   20 3A EE   LEDCA     JSR LEE3A
EDCD   38                   SEC
EDCE   D0 22                BNE LEDF2
EDD0   B1 6C                LDA ($6C),Y
EDD2   1D 54 EE             ORA $EE54,X
EDD5   91 6C                STA ($6C),Y
EDD7   20 F3 ED             JSR LEDF3
EDDA   A4 6E                LDY $6E
EDDC   18                   CLC
EDDD   B1 6C                LDA ($6C),Y
EDDF   69 01                ADC #$01
EDE1   91 6C                STA ($6C),Y
EDE3   A5 79                LDA $79
EDE5   CD C3 F0             CMP $F0C3
EDE8   F0 3B                BEQ LEE25
EDEA   FE FA 02             INC $02FA,X
EDED   D0 03                BNE LEDF2
EDEF   FE FC 02             INC $02FC,X
EDF2   60         LEDF2     RTS
EDF3   A6 78      LEDF3     LDX $78
EDF5   A9 01                LDA #$01
EDF7   9D 51 02             STA $0251,X
EDFA   60                   RTS
EDFB   20 5C EE   LEDFB     JSR LEE5C
EDFE   20 3A EE   LEDFE     JSR LEE3A
EE01   F0 36                BEQ LEE39
EE03   B1 6C                LDA ($6C),Y
EE05   5D 54 EE             EOR $EE54,X
EE08   91 6C                STA ($6C),Y
EE0A   20 F3 ED             JSR LEDF3
EE0D   A4 6E                LDY $6E
EE0F   B1 6C                LDA ($6C),Y
EE11   38                   SEC
EE12   E9 01                SBC #$01
EE14   91 6C                STA ($6C),Y
EE16   A5 79                LDA $79
EE18   CD C3 F0             CMP $F0C3
EE1B   F0 0B                BEQ LEE28
EE1D   BD FA 02             LDA $02FA,X
EE20   D0 03                BNE LEE25
EE22   DE FC 02             DEC $02FC,X
EE25   DE FA 02   LEE25     DEC $02FA,X
EE28   BD FC 02   LEE28     LDA $02FC,X
EE2B   D0 0C                BNE LEE39
EE2D   BD FA 02             LDA $02FA,X
EE30   C9 03                CMP #$03
EE32   B0 05                BCS LEE39
EE34   A9 72                LDA #$72
EE36   20 06 E8             JSR LE806
EE39   60         LEE39     RTS
EE3A   20 7C EE   LEE3A     JSR LEE7C
EE3D   98                   TYA
EE3E   85 6E                STA $6E
EE40   A5 7A      LEE40     LDA $7A
EE42   4A                   LSR A
EE43   4A                   LSR A
EE44   4A                   LSR A
EE45   38                   SEC
EE46   65 6E                ADC $6E
EE48   A8                   TAY
EE49   A5 7A                LDA $7A
EE4B   29 07                AND #$07
EE4D   AA                   TAX
EE4E   B1 6C                LDA ($6C),Y
EE50   3D 54 EE             AND $EE54,X
EE53   60                   RTS
EE54   01 02                ORA ($02,X)
EE56   04 08                NOP $08
EE58   10 20                BPL LEE7A
EE5A   40                   RTI
EE5B   80 A9                NOP #$A9
EE5D   FF 2C F9             ISC $F92C,X
EE60   02                   JAM
EE61   F0 0C                BEQ LEE6F
EE63   10 0A                BPL LEE6F
EE65   70 08                BVS LEE6F
EE67   A9 00                LDA #$00
EE69   8D F9 02             STA $02F9
EE6C   4C DD D6             JMP LD6DD
EE6F   60         LEE6F     RTS
EE70   20 A5 ED   LEE70     JSR LEDA5
EE73   A0 00                LDY #$00
EE75   98                   TYA
EE76   91 6C      LEE76     STA ($6C),Y
EE78   C8                   INY
EE79   D0 FB                BNE LEE76
EE7B   60                   RTS
EE7C   A5 6E      LEE7C     LDA $6E
EE7E   48                   PHA
EE7F   A5 6F                LDA $6F
EE81   48                   PHA
EE82   A6 78                LDX $78
EE84   B5 5F                LDA $5F,X
EE86   F0 05                BEQ LEE8D
EE88   A9 74                LDA #$74
EE8A   20 84 E7             JSR LE784
EE8D   20 7A EF   LEE8D     JSR LEF7A
EE90   85 6E                STA $6E
EE92   8A                   TXA
EE93   0A                   ASL A
EE94   85 6F                STA $6F
EE96   AA                   TAX
EE97   A5 79                LDA $79
EE99   DD 9D 02             CMP $029D,X
EE9C   F0 0B                BEQ LEEA9
EE9E   E8                   INX
EE9F   86 6F                STX $6F
EEA1   DD 9D 02             CMP $029D,X
EEA4   F0 03                BEQ LEEA9
EEA6   20 C6 EE             JSR LEEC6
EEA9   A5 6F      LEEA9     LDA $6F
EEAB   A6 78                LDX $78
EEAD   9D 9B 02             STA $029B,X
EEB0   0A                   ASL A
EEB1   0A                   ASL A
EEB2   18                   CLC
EEB3   69 A1                ADC #$A1
EEB5   85 6C                STA $6C
EEB7   A9 02                LDA #$02
EEB9   69 00                ADC #$00
EEBB   85 6D                STA $6D
EEBD   A0 00                LDY #$00
EEBF   68                   PLA
EEC0   85 6F                STA $6F
EEC2   68                   PLA
EEC3   85 6E                STA $6E
EEC5   60                   RTS
EEC6   A6 6E      LEEC6     LDX $6E
EEC8   20 4A EF             JSR LEF4A
EECB   A5 78                LDA $78
EECD   AA                   TAX
EECE   0A                   ASL A
EECF   1D 9B 02             ORA $029B,X
EED2   49 01                EOR #$01
EED4   29 03                AND #$03
EED6   85 6F                STA $6F
EED8   20 10 EF             JSR LEF10
EEDB   A5 98                LDA $98
EEDD   0A                   ASL A
EEDE   AA                   TAX
EEDF   A5 79                LDA $79
EEE1   0A                   ASL A
EEE2   0A                   ASL A
EEE3   95 9A                STA $9A,X
EEE5   A5 6F                LDA $6F
EEE7   0A                   ASL A
EEE8   0A                   ASL A
EEE9   A8                   TAY
EEEA   A1 9A      LEEEA     LDA ($9A,X)
EEEC   99 A1 02             STA $02A1,Y
EEEF   A9 00                LDA #$00
EEF1   81 9A                STA ($9A,X)
EEF3   F6 9A                INC $9A,X
EEF5   C8                   INY
EEF6   98                   TYA
EEF7   29 03                AND #$03
EEF9   D0 EF                BNE LEEEA
EEFB   A6 6F                LDX $6F
EEFD   A5 79                LDA $79
EEFF   9D 9D 02             STA $029D,X
EF02   AD F9 02             LDA $02F9
EF05   D0 03                BNE LEF0A
EF07   4C DD D6             JMP LD6DD
EF0A   09 80      LEF0A     ORA #$80
EF0C   8D F9 02             STA $02F9
EF0F   60                   RTS
EF10   A8         LEF10     TAY
EF11   B9 9D 02             LDA $029D,Y
EF14   F0 25                BEQ LEF3B
EF16   48                   PHA
EF17   A9 00                LDA #$00
EF19   99 9D 02             STA $029D,Y
EF1C   A5 98                LDA $98
EF1E   0A                   ASL A
EF1F   AA                   TAX
EF20   68                   PLA
EF21   0A                   ASL A
EF22   0A                   ASL A
EF23   95 9A                STA $9A,X
EF25   98                   TYA
EF26   0A                   ASL A
EF27   0A                   ASL A
EF28   A8                   TAY
EF29   B9 A1 02   LEF29     LDA $02A1,Y
EF2C   81 9A                STA ($9A,X)
EF2E   A9 00                LDA #$00
EF30   99 A1 02             STA $02A1,Y
EF33   F6 9A                INC $9A,X
EF35   C8                   INY
EF36   98                   TYA
EF37   29 03                AND #$03
EF39   D0 EE                BNE LEF29
EF3B   60         LEF3B     RTS
EF3C   A5 78      LEF3C     LDA $78
EF3E   0A                   ASL A
EF3F   AA                   TAX
EF40   A9 00                LDA #$00
EF42   9D 9D 02             STA $029D,X
EF45   E8                   INX
EF46   9D 9D 02             STA $029D,X
EF49   60                   RTS
EF4A   B5 A8      LEF4A     LDA $A8,X
EF4C   C9 FF                CMP #$FF
EF4E   D0 25                BNE LEF75
EF50   8A                   TXA
EF51   48                   PHA
EF52   20 E4 D3             JSR LD3E4
EF55   AA                   TAX
EF56   10 05                BPL LEF5D
EF58   A9 70                LDA #$70
EF5A   20 B2 C2             JSR LC2B2
EF5D   86 98      LEF5D     STX $98
EF5F   68                   PLA
EF60   A8                   TAY
EF61   8A                   TXA
EF62   09 80                ORA #$80
EF64   99 A8 00             STA $00A8,Y
EF67   0A                   ASL A
EF68   AA                   TAX
EF69   AD C3 F0             LDA $F0C3
EF6C   95 08                STA $08,X
EF6E   A9 00                LDA #$00
EF70   95 09                STA $09,X
EF72   4C D9 D6             JMP LD6D9
EF75   29 0F      LEF75     AND #$0F
EF77   85 98                STA $98
EF79   60                   RTS
EF7A   A9 06      LEF7A     LDA #$06
EF7C   A6 78                LDX $78
EF7E   D0 03                BNE LEF83
EF80   18                   CLC
EF81   69 07                ADC #$07
EF83   60         LEF83     RTS
EF84   20 7A EF   LEF84     JSR LEF7A
EF87   AA                   TAX
EF88   60                   RTS
EF89   20 79 DF   LEF89     JSR LDF79
EF8C   A9 03                LDA #$03
EF8E   85 6E                STA $6E
EF90   A9 01                LDA #$01
EF92   0D F9 02             ORA $02F9
EF95   8D F9 02             STA $02F9
EF98   A5 6E      LEF98     LDA $6E
EF9A   48                   PHA
EF9B   20 7C EE             JSR LEE7C
EF9E   68                   PLA
EF9F   85 6E                STA $6E
EFA1   B1 6C                LDA ($6C),Y
EFA3   D0 39                BNE LEFDE
EFA5   A5 79                LDA $79
EFA7   CD C3 F0             CMP $F0C3
EFAA   F0 19                BEQ LEFC5
EFAC   90 1C                BCC LEFCA
EFAE   E6 79                INC $79
EFB0   A5 79                LDA $79
EFB2   CD 1A F1             CMP $F11A
EFB5   D0 E1                BNE LEF98
EFB7   AE C3 F0             LDX $F0C3
EFBA   CA                   DEX
EFBB   86 79                STX $79
EFBD   A9 00                LDA #$00
EFBF   85 7A                STA $7A
EFC1   C6 6E                DEC $6E
EFC3   D0 D3                BNE LEF98
EFC5   A9 72      LEFC5     LDA #$72
EFC7   20 B2 C2             JSR LC2B2
EFCA   C6 79      LEFCA     DEC $79
EFCC   D0 CA                BNE LEF98
EFCE   AE C3 F0             LDX $F0C3
EFD1   E8                   INX
EFD2   86 79                STX $79
EFD4   A9 00                LDA #$00
EFD6   85 7A                STA $7A
EFD8   C6 6E                DEC $6E
EFDA   D0 BC                BNE LEF98
EFDC   F0 E7                BEQ LEFC5
EFDE   A5 7A      LEFDE     LDA $7A
EFE0   18                   CLC
EFE1   65 68                ADC $68
EFE3   85 7A                STA $7A
EFE5   A5 79                LDA $79
EFE7   20 B6 F0             JSR LF0B6
EFEA   8D 4E 02             STA $024E
EFED   8D 4D 02             STA $024D
EFF0   C5 7A                CMP $7A
EFF2   B0 0C                BCS LF000
EFF4   38                   SEC
EFF5   A5 7A                LDA $7A
EFF7   ED 4E 02             SBC $024E
EFFA   85 7A                STA $7A
EFFC   F0 02                BEQ LF000
EFFE   C6 7A                DEC $7A
F000   20 65 F0   LF000     JSR LF065
F003   F0 03                BEQ LF008
F005   4C FB ED   LF005     JMP LEDFB
F008   A9 00      LF008     LDA #$00
F00A   85 7A                STA $7A
F00C   20 65 F0             JSR LF065
F00F   D0 F4                BNE LF005
F011   4C 60 F0             JMP LF060
F014   A9 01      LF014     LDA #$01
F016   0D F9 02             ORA $02F9
F019   8D F9 02             STA $02F9
F01C   A5 7F                LDA $7F
F01E   48                   PHA
F01F   A9 01                LDA #$01
F021   85 7F                STA $7F
F023   AD C3 F0   LF023     LDA $F0C3
F026   38                   SEC
F027   E5 7F                SBC $7F
F029   85 79                STA $79
F02B   90 09                BCC LF036
F02D   F0 07                BEQ LF036
F02F   20 7C EE             JSR LEE7C
F032   B1 6C                LDA ($6C),Y
F034   D0 1B                BNE LF051
F036   AD C3 F0   LF036     LDA $F0C3
F039   18                   CLC
F03A   65 7F                ADC $7F
F03C   85 79                STA $79
F03E   E6 7F                INC $7F
F040   CD 1A F1             CMP $F11A
F043   90 05                BCC LF04A
F045   A9 67                LDA #$67
F047   20 81 E7             JSR LE781
F04A   20 7C EE   LF04A     JSR LEE7C
F04D   B1 6C                LDA ($6C),Y
F04F   F0 D2                BEQ LF023
F051   68         LF051     PLA
F052   85 7F                STA $7F
F054   A9 00                LDA #$00
F056   85 7A                STA $7A
F058   20 65 F0             JSR LF065
F05B   F0 03                BEQ LF060
F05D   4C FB ED             JMP LEDFB
F060   A9 71      LF060     LDA #$71
F062   20 81 E7             JSR LE781
F065   20 7C EE   LF065     JSR LEE7C
F068   98                   TYA
F069   48                   PHA
F06A   20 8B F0             JSR LF08B
F06D   A5 79                LDA $79
F06F   20 B6 F0             JSR LF0B6
F072   8D 4E 02             STA $024E
F075   68                   PLA
F076   85 6E                STA $6E
F078   A5 7A      LF078     LDA $7A
F07A   CD 4E 02             CMP $024E
F07D   B0 09                BCS LF088
F07F   20 40 EE             JSR LEE40
F082   D0 06                BNE LF08A
F084   E6 7A                INC $7A
F086   D0 F0                BNE LF078
F088   A9 00      LF088     LDA #$00
F08A   60         LF08A     RTS
F08B   A5 6E      LF08B     LDA $6E
F08D   48                   PHA
F08E   A9 00                LDA #$00
F090   85 6E                STA $6E
F092   AC C4 F0             LDY $F0C4
F095   88                   DEY
F096   A2 07      LF096     LDX #$07
F098   B1 6C      LF098     LDA ($6C),Y
F09A   3D 54 EE             AND $EE54,X
F09D   F0 02                BEQ LF0A1
F09F   E6 6E                INC $6E
F0A1   CA         LF0A1     DEX
F0A2   10 F4                BPL LF098
F0A4   88                   DEY
F0A5   D0 EF                BNE LF096
F0A7   B1 6C                LDA ($6C),Y
F0A9   C5 6E                CMP $6E
F0AB   D0 04                BNE LF0B1
F0AD   68                   PLA
F0AE   85 6E                STA $6E
F0B0   60                   RTS
F0B1   A9 71      LF0B1     LDA #$71
F0B3   20 81 E7             JSR LE781
F0B6   AE 19 F1   LF0B6     LDX $F119
F0B9   DD 19 F1   LF0B9     CMP $F119,X
F0BC   CA                   DEX
F0BD   B0 FA                BCS LF0B9
F0BF   BD 14 F1             LDA $F114,X
F0C2   60                   RTS
F0C3   12                   JAM
F0C4   04 04                NOP $04
F0C6   90 25                BCC LF0ED
F0C8   56 49                LSR $49,X
F0CA   44 4D                NOP $4D
F0CC   42                   JAM
F0CD   55 50                EOR $50,X
F0CF   26 43                ROL $43
F0D1   52                   JAM
F0D2   53 4E                SRE ($4E),Y
F0D4   DD F1 21             CMP $21F1,X
F0D7   A2 ED                LDX #$ED
F0D9   0D 4E 42             ORA $424E
F0DC   D1 E5                CMP ($E5),Y
F0DE   7D 04 7A             ADC $7A04,X
F0E1   C1 EB                CMP ($EB,X)
F0E3   D1 C9                CMP ($C9),Y
F0E5   CB CD                SBX #$CD
F0E7   CC E3 E8             CPY $E8E3
F0EA   C9 CB                CMP #$CB
F0EC   C9 EC                CMP #$EC
F0EE   51 DD                EOR ($DD),Y
F0F0   1C 9E 1C             NOP $1C9E,X
F0F3   52                   JAM
F0F4   57 41                SRE $41,X
F0F6   4D 44 53             EOR $5344
F0F9   50 55                BVC LF150
F0FB   4C 44 53             JMP $5344
F0FE   50 55                BVC LF155
F100   52                   JAM
F101   45 45                EOR $45
F103   52                   JAM
F104   53 45                SRE ($45),Y
F106   4C 51 47             JMP $4751
F109   52                   JAM
F10A   4C 01 02             JMP $0201
F10D   00                   BRK
F10E   3F 7F BF             RLA $BF7F,X
F111   FF 05 06             ISC $0605,X
F114   11 12                ORA ($12),Y
F116   13 15                SLO ($15),Y
F118   41 04                EOR ($04,X)
F11A   24 1F                BIT $1F
F11C   19 12 01             ORA $0112,Y
F11F   FF FF 01             ISC $01FF,X
F122   00                   BRK
F123   03 04                SLO ($04,X)
F125   05 06                ORA $06
F127   07 07                SLO $07
F129   21 22                AND ($22,X)
F12B   23 24                RLA ($24,X)
F12D   25 26                AND $26
F12F   27 28                RLA $28
F131   29 02                AND #$02
F133   02                   JAM
F134   04 06                NOP $06
F136   08                   PHP
F137   08                   PHP
F138   0B 13                ANC #$13
F13A   16 58                ASL $58,X
F13C   60                   RTS
F13D   A9 6F      LF13D     LDA #$6F
F13F   85 00                STA $00
F141   29 68                AND #$68
F143   85 01                STA $01
F145   A2 14                LDX #$14
F147   8E 02 40             STX $4002
F14A   A2 1F                LDX #$1F
F14C   8E 05 40             STX $4005
F14F   AD 02 40             LDA $4002
F152   29 20                AND #$20
F154   D0 03                BNE LF159
F156   A9 08                LDA #$08
F158   2C A9 09             BIT $09A9
F15B   85 66                STA $66
F15D   20 0D C2             JSR LC20D
F160   A9 FF                LDA #$FF
F162   85 31                STA $31
F164   85 40                STA $40
F166   A9 01                LDA #$01
F168   85 22                STA $22
F16A   85 23                STA $23
F16C   A9 00                LDA #$00
F16E   85 4D                STA $4D
F170   A0 12                LDY #$12
F172   A9 01                LDA #$01
F174   99 02 00   LF174     STA $0002,Y
F177   88                   DEY
F178   10 FA                BPL LF174
F17A   A9 00                LDA #$00
F17C   8D 03 40             STA $4003
F17F   AD 02 40             LDA $4002
F182   09 08                ORA #$08
F184   29 FC                AND #$FC
F186   8D 02 40             STA $4002
F189   29 F7                AND #$F7
F18B   8D 02 40             STA $4002
F18E   09 08                ORA #$08
F190   8D 02 40             STA $4002
F193   58                   CLI
F194   60                   RTS
F195   48                   PHA
F196   8A                   TXA
F197   48                   PHA
F198   98                   TYA
F199   48                   PHA
F19A   BA                   TSX
F19B   86 3A                STX $3A
F19D   A0 05      LF19D     LDY #$05
F19F   B9 02 00   LF19F     LDA $0002,Y
F1A2   30 27                BMI LF1CB
F1A4   88                   DEY
F1A5   10 F8                BPL LF19F
F1A7   A5 76                LDA $76
F1A9   D0 0F                BNE LF1BA
F1AB   A5 01                LDA $01
F1AD   09 08                ORA #$08
F1AF   A4 96                LDY $96
F1B1   F0 02                BEQ LF1B5
F1B3   29 F7                AND #$F7
F1B5   85 01      LF1B5     STA $01
F1B7   4C C8 F1             JMP LF1C8
F1BA   C6 55      LF1BA     DEC $55
F1BC   10 0A                BPL LF1C8
F1BE   A9 1E                LDA #$1E
F1C0   85 55                STA $55
F1C2   A5 01                LDA $01
F1C4   49 08                EOR #$08
F1C6   85 01                STA $01
F1C8   4C 41 FA   LF1C8     JMP LFA41
F1CB   29 01      LF1CB     AND #$01
F1CD   AA                   TAX
F1CE   C5 31                CMP $31
F1D0   F0 1B                BEQ LF1ED
F1D2   85 31                STA $31
F1D4   29 01                AND #$01
F1D6   85 32                STA $32
F1D8   6A                   ROR A
F1D9   6A                   ROR A
F1DA   6A                   ROR A
F1DB   85 38                STA $38
F1DD   AD 02 40             LDA $4002
F1E0   29 3F                AND #$3F
F1E2   05 38                ORA $38
F1E4   8D 02 40             STA $4002
F1E7   20 27 FA             JSR LFA27
F1EA   4C 41 FA             JMP LFA41
F1ED   A5 2B      LF1ED     LDA $2B
F1EF   30 03                BMI LF1F4
F1F1   0A                   ASL A
F1F2   10 03                BPL LF1F7
F1F4   4C 41 FA   LF1F4     JMP LFA41
F1F7   A9 20      LF1F7     LDA #$20
F1F9   85 2B                STA $2B
F1FB   A5 01                LDA $01
F1FD   29 F7                AND #$F7
F1FF   85 01                STA $01
F201   A0 05                LDY #$05
F203   84 33                STY $33
F205   20 84 F2   LF205     JSR LF284
F208   30 1A                BMI LF224
F20A   C6 33      LF20A     DEC $33
F20C   10 F7                BPL LF205
F20E   A4 34                LDY $34
F210   20 86 F2             JSR LF286
F213   A5 35                LDA $35
F215   85 3B                STA $3B
F217   06 3B                ASL $3B
F219   A9 60                LDA #$60
F21B   85 2B                STA $2B
F21D   B1 20                LDA ($20),Y
F21F   85 29                STA $29
F221   4C 41 FA             JMP LFA41
F224   29 01      LF224     AND #$01
F226   C5 31                CMP $31
F228   D0 E0                BNE LF20A
F22A   A5 29                LDA $29
F22C   F0 10                BEQ LF23E
F22E   38                   SEC
F22F   B1 20                LDA ($20),Y
F231   E5 29                SBC $29
F233   F0 09                BEQ LF23E
F235   85 35                STA $35
F237   A5 33                LDA $33
F239   85 34                STA $34
F23B   4C 0A F2             JMP LF20A
F23E   A2 04      LF23E     LDX #$04
F240   B1 20                LDA ($20),Y
F242   85 56                STA $56
F244   DD 19 F1   LF244     CMP $F119,X
F247   CA                   DEX
F248   B0 FA                BCS LF244
F24A   BD 14 F1             LDA $F114,X
F24D   85 57                STA $57
F24F   8A                   TXA
F250   0A                   ASL A
F251   0A                   ASL A
F252   0A                   ASL A
F253   0A                   ASL A
F254   0A                   ASL A
F255   85 38                STA $38
F257   A5 01                LDA $01
F259   29 9F                AND #$9F
F25B   05 38                ORA $38
F25D   85 01                STA $01
F25F   A5 1D                LDA $1D
F261   C9 40                CMP #$40
F263   F0 0A                BEQ LF26F
F265   C9 70                CMP #$70
F267   F0 03                BEQ LF26C
F269   4C A6 F2             JMP LF2A6
F26C   4C 7A FB   LF26C     JMP LFB7A
F26F   A5 01      LF26F     LDA $01
F271   29 FC                AND #$FC
F273   85 01                STA $01
F275   A9 60                LDA #$60
F277   85 2B                STA $2B
F279   A9 A4                LDA #$A4
F27B   85 3B                STA $3B
F27D   A9 01                LDA #$01
F27F   85 29                STA $29
F281   4C 12 FA             JMP LFA12
F284   A4 33      LF284     LDY $33
F286   B9 02 00   LF286     LDA $0002,Y
F289   48                   PHA
F28A   10 14                BPL LF2A0
F28C   29 78                AND #$78
F28E   85 1D                STA $1D
F290   98                   TYA
F291   0A                   ASL A
F292   69 08                ADC #$08
F294   85 20                STA $20
F296   A9 00                LDA #$00
F298   85 21                STA $21
F29A   98                   TYA
F29B   18                   CLC
F29C   69 03                ADC #$03
F29E   85 28                STA $28
F2A0   A0 00      LF2A0     LDY #$00
F2A2   84 27                STY $27
F2A4   68                   PLA
F2A5   60                   RTS
F2A6   A9 5A      LF2A6     LDA #$5A
F2A8   85 3C                STA $3C
F2AA   20 60 F5   LF2AA     JSR LF560
F2AD   24 01      LF2AD     BIT $01
F2AF   10 FC                BPL LF2AD
F2B1   2C 00 40             BIT $4000
F2B4   AD 01 40             LDA $4001
F2B7   C9 52                CMP #$52
F2B9   D0 42                BNE LF2FD
F2BB   A0 00                LDY #$00
F2BD   99 11 01             STA $0111,Y
F2C0   C8                   INY
F2C1   24 01      LF2C1     BIT $01
F2C3   10 FC                BPL LF2C1
F2C5   2C 00 40             BIT $4000
F2C8   AD 01 40             LDA $4001
F2CB   99 11 01             STA $0111,Y
F2CE   C8                   INY
F2CF   C0 08                CPY #$08
F2D1   D0 EE                BNE LF2C1
F2D3   20 88 F3             JSR LF388
F2D6   A0 04                LDY #$04
F2D8   A9 00                LDA #$00
F2DA   59 18 00   LF2DA     EOR $0018,Y
F2DD   88                   DEY
F2DE   10 FA                BPL LF2DA
F2E0   C9 00                CMP #$00
F2E2   D0 30                BNE LF314
F2E4   A5 1A                LDA $1A
F2E6   85 29                STA $29
F2E8   A5 1D                LDA $1D
F2EA   C9 30                CMP #$30
F2EC   F0 18                BEQ LF306
F2EE   A5 14                LDA $14
F2F0   C5 18                CMP $18
F2F2   D0 1D                BNE LF311
F2F4   A5 15                LDA $15
F2F6   C5 19                CMP $19
F2F8   D0 17                BNE LF311
F2FA   4C 19 F3             JMP LF319
F2FD   C6 3C      LF2FD     DEC $3C
F2FF   D0 A9                BNE LF2AA
F301   A9 02                LDA #$02
F303   20 12 FA             JSR LFA12
F306   A5 18      LF306     LDA $18
F308   85 14                STA $14
F30A   A5 19                LDA $19
F30C   85 15                STA $15
F30E   A9 01      LF30E     LDA #$01
F310   2C A9 0B             BIT $0BA9
F313   2C A9 09             BIT $09A9
F316   4C 12 FA             JMP LFA12
F319   A9 7F      LF319     LDA #$7F
F31B   85 3D                STA $3D
F31D   A5 1B                LDA $1B
F31F   18                   CLC
F320   69 02                ADC #$02
F322   C5 57                CMP $57
F324   90 02                BCC LF328
F326   E5 57                SBC $57
F328   85 3E      LF328     STA $3E
F32A   A2 05                LDX #$05
F32C   86 33                STX $33
F32E   A2 FF                LDX #$FF
F330   20 84 F2   LF330     JSR LF284
F333   10 3F                BPL LF374
F335   85 38                STA $38
F337   29 01                AND #$01
F339   C5 31                CMP $31
F33B   D0 37                BNE LF374
F33D   A0 00                LDY #$00
F33F   B1 20                LDA ($20),Y
F341   C5 56                CMP $56
F343   D0 2F                BNE LF374
F345   A0 01                LDY #$01
F347   38                   SEC
F348   B1 20                LDA ($20),Y
F34A   E5 3E                SBC $3E
F34C   10 03                BPL LF351
F34E   18                   CLC
F34F   65 57                ADC $57
F351   C5 3D      LF351     CMP $3D
F353   B0 1F                BCS LF374
F355   48                   PHA
F356   A5 1D                LDA $1D
F358   F0 15                BEQ LF36F
F35A   68                   PLA
F35B   C9 09                CMP #$09
F35D   90 15                BCC LF374
F35F   C9 0C                CMP #$0C
F361   B0 11                BCS LF374
F363   85 3D      LF363     STA $3D
F365   A5 33                LDA $33
F367   AA                   TAX
F368   18                   CLC
F369   69 03                ADC #$03
F36B   85 28                STA $28
F36D   D0 05                BNE LF374
F36F   68         LF36F     PLA
F370   C9 06                CMP #$06
F372   90 EF                BCC LF363
F374   C6 33      LF374     DEC $33
F376   10 B8                BPL LF330
F378   8A                   TXA
F379   10 03                BPL LF37E
F37B   4C 41 FA             JMP LFA41
F37E   86 33      LF37E     STX $33
F380   20 84 F2             JSR LF284
F383   A5 1D                LDA $1D
F385   4C FC F3             JMP LF3FC
F388   A5 27      LF388     LDA $27
F38A   48                   PHA
F38B   A5 28                LDA $28
F38D   48                   PHA
F38E   A9 11                LDA #$11
F390   85 27                STA $27
F392   A9 01                LDA #$01
F394   85 28                STA $28
F396   A9 00                LDA #$00
F398   85 2D                STA $2D
F39A   20 28 F9             JSR LF928
F39D   A5 44                LDA $44
F39F   85 1A                STA $1A
F3A1   A5 43                LDA $43
F3A3   85 1B                STA $1B
F3A5   A5 42                LDA $42
F3A7   85 1C                STA $1C
F3A9   20 28 F9             JSR LF928
F3AC   A5 41                LDA $41
F3AE   85 19                STA $19
F3B0   A5 42                LDA $42
F3B2   85 18                STA $18
F3B4   68                   PLA
F3B5   85 28                STA $28
F3B7   68                   PLA
F3B8   85 27                STA $27
F3BA   60                   RTS
F3BB   A5 28      LF3BB     LDA $28
F3BD   85 1F                STA $1F
F3BF   A9 01                LDA #$01
F3C1   85 28                STA $28
F3C3   A9 11                LDA #$11
F3C5   85 2D                STA $2D
F3C7   A9 08                LDA #$08
F3C9   85 41                STA $41
F3CB   A5 1C                LDA $1C
F3CD   85 42                STA $42
F3CF   A5 1B                LDA $1B
F3D1   85 43                STA $43
F3D3   A5 1A                LDA $1A
F3D5   85 44                STA $44
F3D7   20 0C F8             JSR LF80C
F3DA   A5 19                LDA $19
F3DC   85 41                STA $41
F3DE   A5 18                LDA $18
F3E0   85 42                STA $42
F3E2   A9 00                LDA #$00
F3E4   85 43                STA $43
F3E6   85 44                STA $44
F3E8   20 0C F8             JSR LF80C
F3EB   A5 1F                LDA $1F
F3ED   85 28                STA $28
F3EF   60                   RTS
F3F0   A9 00      LF3F0     LDA #$00
F3F2   8D 6C 02             STA $026C
F3F5   F0 02                BEQ LF3F9
F3F7   A9 E0      LF3F7     LDA #$E0
F3F9   85 76      LF3F9     STA $76
F3FB   60                   RTS
F3FC   C9 00      LF3FC     CMP #$00
F3FE   F0 03                BEQ LF403
F400   4C 7D F5             JMP LF57D
F403   20 13 F5   LF403     JSR LF513
F406   24 01      LF406     BIT $01
F408   10 FC                BPL LF406
F40A   AD 01 40             LDA $4001
F40D   85 FA                STA $FA
F40F   29 F8                AND #$F8
F411   AA                   TAX
F412   BD 0C F7             LDA $F70C,X
F415   85 F9                STA $F9
F417   A5 FA                LDA $FA
F419   29 07                AND #$07
F41B   85 FA                STA $FA
F41D   24 01      LF41D     BIT $01
F41F   10 FC                BPL LF41D
F421   AD 01 40             LDA $4001
F424   85 FB                STA $FB
F426   29 C0                AND #$C0
F428   05 FA                ORA $FA
F42A   AA                   TAX
F42B   BD 0C F7             LDA $F70C,X
F42E   05 F9                ORA $F9
F430   48                   PHA
F431   D0 31                BNE LF464
F433   F0 2F                BEQ LF464
F435   24 01      LF435     BIT $01
F437   10 FC                BPL LF435
F439   AD 01 40             LDA $4001
F43C   85 FA                STA $FA
F43E   29 F8                AND #$F8
F440   AA                   TAX
F441   BD 0C F7             LDA $F70C,X
F444   85 F9                STA $F9
F446   A5 FA                LDA $FA
F448   29 07                AND #$07
F44A   85 FA                STA $FA
F44C   24 01      LF44C     BIT $01
F44E   10 FC                BPL LF44C
F450   AD 01 40             LDA $4001
F453   85 FB                STA $FB
F455   29 C0                AND #$C0
F457   05 FA                ORA $FA
F459   AA                   TAX
F45A   BD 0C F7             LDA $F70C,X
F45D   05 F9                ORA $F9
F45F   91 27                STA ($27),Y
F461   C8                   INY
F462   F0 75                BEQ LF4D9
F464   A5 FB      LF464     LDA $FB
F466   29 3E                AND #$3E
F468   AA                   TAX
F469   BD 0C F7             LDA $F70C,X
F46C   85 F9                STA $F9
F46E   A5 FB                LDA $FB
F470   29 01                AND #$01
F472   85 FB                STA $FB
F474   24 01      LF474     BIT $01
F476   10 FC                BPL LF474
F478   AD 01 40             LDA $4001
F47B   85 FC                STA $FC
F47D   29 F0                AND #$F0
F47F   05 FB                ORA $FB
F481   AA                   TAX
F482   BD 0E F7             LDA $F70E,X
F485   05 F9                ORA $F9
F487   91 27                STA ($27),Y
F489   C8                   INY
F48A   A5 FC                LDA $FC
F48C   29 0F                AND #$0F
F48E   85 FC                STA $FC
F490   24 01      LF490     BIT $01
F492   10 FC                BPL LF490
F494   AD 01 40             LDA $4001
F497   85 FD                STA $FD
F499   29 80                AND #$80
F49B   05 FC                ORA $FC
F49D   AA                   TAX
F49E   BD 1C F7             LDA $F71C,X
F4A1   85 F9                STA $F9
F4A3   A5 FD                LDA $FD
F4A5   29 7C                AND #$7C
F4A7   AA                   TAX
F4A8   BD 0D F7             LDA $F70D,X
F4AB   05 F9                ORA $F9
F4AD   91 27                STA ($27),Y
F4AF   C8                   INY
F4B0   A5 FD                LDA $FD
F4B2   29 03                AND #$03
F4B4   85 FD                STA $FD
F4B6   24 01      LF4B6     BIT $01
F4B8   10 FC                BPL LF4B6
F4BA   AD 01 40             LDA $4001
F4BD   85 FA                STA $FA
F4BF   29 E0                AND #$E0
F4C1   05 FD                ORA $FD
F4C3   AA                   TAX
F4C4   BD 29 F7             LDA $F729,X
F4C7   85 F9                STA $F9
F4C9   A5 FA                LDA $FA
F4CB   29 1F                AND #$1F
F4CD   AA                   TAX
F4CE   BD FF F6             LDA $F6FF,X
F4D1   05 F9                ORA $F9
F4D3   91 27                STA ($27),Y
F4D5   C8                   INY
F4D6   4C 35 F4             JMP LF435
F4D9   A5 FB      LF4D9     LDA $FB
F4DB   29 3E                AND #$3E
F4DD   AA                   TAX
F4DE   BD 0C F7             LDA $F70C,X
F4E1   85 F9                STA $F9
F4E3   A5 FB                LDA $FB
F4E5   29 01                AND #$01
F4E7   85 FB                STA $FB
F4E9   24 01      LF4E9     BIT $01
F4EB   10 FC                BPL LF4E9
F4ED   AD 01 40             LDA $4001
F4F0   29 F0                AND #$F0
F4F2   05 FB                ORA $FB
F4F4   AA                   TAX
F4F5   BD 0E F7             LDA $F70E,X
F4F8   05 F9                ORA $F9
F4FA   85 FA                STA $FA
F4FC   68                   PLA
F4FD   C9 07                CMP #$07
F4FF   D0 0A                BNE LF50B
F501   20 0A F6             JSR LF60A
F504   C5 FA                CMP $FA
F506   F0 06                BEQ LF50E
F508   A9 05                LDA #$05
F50A   2C A9 04             BIT $04A9
F50D   2C A9 01             BIT $01A9
F510   4C 12 FA             JMP LFA12
F513   20 19 F5   LF513     JSR LF519
F516   4C 60 F5             JMP LF560
F519   A5 14      LF519     LDA $14
F51B   85 18                STA $18
F51D   A5 15                LDA $15
F51F   85 19                STA $19
F521   A0 00                LDY #$00
F523   B1 20                LDA ($20),Y
F525   85 1A                STA $1A
F527   C8                   INY
F528   B1 20                LDA ($20),Y
F52A   85 1B                STA $1B
F52C   A9 00                LDA #$00
F52E   45 18                EOR $18
F530   45 19                EOR $19
F532   45 1A                EOR $1A
F534   45 1B                EOR $1B
F536   85 1C                STA $1C
F538   20 BB F3             JSR LF3BB
F53B   A9 5A                LDA #$5A
F53D   85 3C                STA $3C
F53F   20 60 F5   LF53F     JSR LF560
F542   B9 11 01   LF542     LDA $0111,Y
F545   24 01      LF545     BIT $01
F547   10 FC                BPL LF545
F549   CD 01 40             CMP $4001
F54C   D0 06                BNE LF554
F54E   C8                   INY
F54F   C0 08                CPY #$08
F551   D0 EF                BNE LF542
F553   60                   RTS
F554   C6 3C      LF554     DEC $3C
F556   D0 E7                BNE LF53F
F558   A9 02                LDA #$02
F55A   2C A9 03             BIT $03A9
F55D   4C 12 FA             JMP LFA12
F560   A0 12      LF560     LDY #$12
F562   A2 FF      LF562     LDX #$FF
F564   AD 02 40   LF564     LDA $4002
F567   29 40                AND #$40
F569   F0 09                BEQ LF574
F56B   CA                   DEX
F56C   D0 F6                BNE LF564
F56E   88                   DEY
F56F   D0 F1                BNE LF562
F571   4C 5B F5             JMP LF55B
F574   AD 01 40   LF574     LDA $4001
F577   2C 00 40             BIT $4000
F57A   A0 00                LDY #$00
F57C   60                   RTS
F57D   C9 10      LF57D     CMP #$10
F57F   F0 03                BEQ LF584
F581   4C BA F6             JMP LF6BA
F584   20 0A F6   LF584     JSR LF60A
F587   A5 01                LDA $01
F589   29 10                AND #$10
F58B   D0 05                BNE LF592
F58D   A9 08                LDA #$08
F58F   4C 12 FA             JMP LFA12
F592   20 CF F8   LF592     JSR LF8CF
F595   20 19 F5             JSR LF519
F598   A0 09                LDY #$09
F59A   24 01      LF59A     BIT $01
F59C   10 FC                BPL LF59A
F59E   2C 00 40             BIT $4000
F5A1   88                   DEY
F5A2   D0 F6                BNE LF59A
F5A4   A9 FF                LDA #$FF
F5A6   8D 04 40             STA $4004
F5A9   AD 02 40             LDA $4002
F5AC   29 EF                AND #$EF
F5AE   8D 02 40             STA $4002
F5B1   A9 FF                LDA #$FF
F5B3   A0 05                LDY #$05
F5B5   8D 01 40             STA $4001
F5B8   2C 00 40             BIT $4000
F5BB   24 01      LF5BB     BIT $01
F5BD   10 FC                BPL LF5BB
F5BF   2C 00 40             BIT $4000
F5C2   88                   DEY
F5C3   D0 F6                BNE LF5BB
F5C5   A0 BB                LDY #$BB
F5C7   B9 60 00   LF5C7     LDA $0060,Y
F5CA   24 01      LF5CA     BIT $01
F5CC   10 FC                BPL LF5CA
F5CE   2C 00 40             BIT $4000
F5D1   8D 01 40             STA $4001
F5D4   C8                   INY
F5D5   D0 F0                BNE LF5C7
F5D7   B1 27      LF5D7     LDA ($27),Y
F5D9   24 01      LF5D9     BIT $01
F5DB   10 FC                BPL LF5D9
F5DD   2C 00 40             BIT $4000
F5E0   8D 01 40             STA $4001
F5E3   C8                   INY
F5E4   D0 F1                BNE LF5D7
F5E6   24 01      LF5E6     BIT $01
F5E8   10 FC                BPL LF5E6
F5EA   2C 00 40             BIT $4000
F5ED   AD 02 40             LDA $4002
F5F0   09 10                ORA #$10
F5F2   8D 02 40             STA $4002
F5F5   A9 00                LDA #$00
F5F7   8D 04 40             STA $4004
F5FA   20 18 F6             JSR LF618
F5FD   A4 33                LDY $33
F5FF   B9 02 00             LDA $0002,Y
F602   49 30                EOR #$30
F604   99 02 00             STA $0002,Y
F607   4C A6 F2             JMP LF2A6
F60A   A0 00      LF60A     LDY #$00
F60C   84 30                STY $30
F60E   B1 27      LF60E     LDA ($27),Y
F610   45 30                EOR $30
F612   85 30                STA $30
F614   C8                   INY
F615   D0 F7                BNE LF60E
F617   60                   RTS
F618   A9 60      LF618     LDA #$60
F61A   85 27                STA $27
F61C   A5 28                LDA $28
F61E   85 36                STA $36
F620   A9 00                LDA #$00
F622   85 28                STA $28
F624   85 37                STA $37
F626   A9 BB                LDA #$BB
F628   85 2D                STA $2D
F62A   85 2E                STA $2E
F62C   20 28 F9             JSR LF928
F62F   A5 41                LDA $41
F631   85 2F                STA $2F
F633   A4 2E                LDY $2E
F635   A5 42                LDA $42
F637   99 60 00             STA $0060,Y
F63A   C8                   INY
F63B   A5 43                LDA $43
F63D   99 60 00             STA $0060,Y
F640   C8                   INY
F641   A5 44                LDA $44
F643   99 60 00             STA $0060,Y
F646   C8                   INY
F647   84 2E                STY $2E
F649   20 28 F9   LF649     JSR LF928
F64C   A4 2E                LDY $2E
F64E   A5 41                LDA $41
F650   99 60 00             STA $0060,Y
F653   C8                   INY
F654   A5 42                LDA $42
F656   99 60 00             STA $0060,Y
F659   C8                   INY
F65A   F0 10                BEQ LF66C
F65C   A5 43                LDA $43
F65E   99 60 00             STA $0060,Y
F661   C8                   INY
F662   A5 44                LDA $44
F664   99 60 00             STA $0060,Y
F667   C8                   INY
F668   84 2E                STY $2E
F66A   D0 DD                BNE LF649
F66C   A5 43      LF66C     LDA $43
F66E   91 27                STA ($27),Y
F670   C8                   INY
F671   A5 44                LDA $44
F673   91 27                STA ($27),Y
F675   C8                   INY
F676   84 2E                STY $2E
F678   20 28 F9   LF678     JSR LF928
F67B   A4 2E                LDY $2E
F67D   A5 41                LDA $41
F67F   91 27                STA ($27),Y
F681   C8                   INY
F682   A5 42                LDA $42
F684   91 27                STA ($27),Y
F686   C8                   INY
F687   A5 43                LDA $43
F689   91 27                STA ($27),Y
F68B   C8                   INY
F68C   A5 44                LDA $44
F68E   91 27                STA ($27),Y
F690   C8                   INY
F691   84 2E                STY $2E
F693   C0 BB                CPY #$BB
F695   90 E1                BCC LF678
F697   A9 45                LDA #$45
F699   85 1E                STA $1E
F69B   A5 28                LDA $28
F69D   85 1F                STA $1F
F69F   A0 BA                LDY #$BA
F6A1   B1 27      LF6A1     LDA ($27),Y
F6A3   91 1E                STA ($1E),Y
F6A5   88                   DEY
F6A6   D0 F9                BNE LF6A1
F6A8   B1 27                LDA ($27),Y
F6AA   91 1E                STA ($1E),Y
F6AC   A2 BB                LDX #$BB
F6AE   B9 1B 01   LF6AE     LDA $011B,Y
F6B1   91 27                STA ($27),Y
F6B3   C8                   INY
F6B4   E8                   INX
F6B5   D0 F7                BNE LF6AE
F6B7   86 3F                STX $3F
F6B9   60                   RTS
F6BA   C9 20      LF6BA     CMP #$20
F6BC   F0 03                BEQ LF6C1
F6BE   4C F9 F6             JMP LF6F9
F6C1   20 0A F6   LF6C1     JSR LF60A
F6C4   20 CF F8             JSR LF8CF
F6C7   20 13 F5             JSR LF513
F6CA   A0 BB                LDY #$BB
F6CC   B9 60 00   LF6CC     LDA $0060,Y
F6CF   24 01      LF6CF     BIT $01
F6D1   10 FC                BPL LF6CF
F6D3   2C 00 40             BIT $4000
F6D6   4D 01 40             EOR $4001
F6D9   D0 19                BNE LF6F4
F6DB   C8                   INY
F6DC   D0 EE                BNE LF6CC
F6DE   B1 27      LF6DE     LDA ($27),Y
F6E0   24 01      LF6E0     BIT $01
F6E2   10 FC                BPL LF6E0
F6E4   2C 00 40             BIT $4000
F6E7   4D 01 40             EOR $4001
F6EA   D0 08                BNE LF6F4
F6EC   C8                   INY
F6ED   C0 FD                CPY #$FD
F6EF   D0 ED                BNE LF6DE
F6F1   4C 0E F3             JMP LF30E
F6F4   A9 07      LF6F4     LDA #$07
F6F6   4C 12 FA             JMP LFA12
F6F9   20 19 F5   LF6F9     JSR LF519
F6FC   4C 0E F3             JMP LF30E
F6FF   FF FF FF             ISC $FFFF,X
F702   FF FF FF             ISC $FFFF,X
F705   FF FF FF             ISC $FFFF,X
F708   08                   PHP
F709   00                   BRK
F70A   01 FF                ORA ($FF,X)
F70C   0C 04 05             NOP $0504
F70F   FF FF 02             ISC $02FF,X
F712   03 FF                SLO ($FF,X)
F714   0F 06 07             SLO $0706
F717   FF 09 0A             ISC $0A09,X
F71A   0B FF                ANC #$FF
F71C   0D 0E 80             ORA $800E
F71F   FF 00 00             ISC $0000,X
F722   10 40                BPL LF764
F724   FF 20 C0             ISC $C020,X
F727   60                   RTS
F728   40                   RTI
F729   A0 50                LDY #$50
F72B   E0 FF                CPX #$FF
F72D   FF FF 02             ISC $02FF,X
F730   20 08 30             JSR $3008
F733   FF FF 00             ISC $00FF,X
F736   F0 FF                BEQ LF737
F738   60                   RTS
F739   01 70      LF739     ORA ($70,X)
F73B   FF FF FF             ISC $FFFF,X
F73E   90 03                BCC LF743
F740   A0 0C                LDY #$0C
F742   B0 FF                BCS LF743
F744   FF 04 D0             ISC $D004,X
F747   FF E0 05             ISC $05E0,X
F74A   80 FF                NOP #$FF
F74C   90 FF                BCC LF74D
F74E   08                   PHP
F74F   0C FF 0F             NOP $0FFF
F752   09 0D                ORA #$0D
F754   80 02                NOP #$02
F756   FF FF FF             ISC $FFFF,X
F759   03 FF                SLO ($FF,X)
F75B   FF 00 FF             ISC $FF00,X
F75E   FF 0F FF             ISC $FF0F,X
F761   0F FF FF             SLO $FFFF
F764   10 06      LF764     BPL LF76C
F766   FF FF FF             ISC $FFFF,X
F769   07 00                SLO $00
F76B   20 A0 FF             JSR LFFA0
F76E   FF 06 FF             ISC $FF06,X
F771   09 FF                ORA #$FF
F773   FF C0 0A             ISC $0AC0,X
F776   FF FF FF             ISC $FFFF,X
F779   0B FF                ANC #$FF
F77B   FF 40 FF   LF77B     ISC $FF40,X
F77E   FF 07 FF             ISC $FF07,X
F781   0D FF FF             ORA $FFFF
F784   50 0E                BVC LF794
F786   FF FF FF             ISC $FFFF,X
F789   FF 10 30             ISC $3010,X
F78C   B0 FF                BCS LF78D
F78E   00                   BRK
F78F   04 02                NOP $02
F791   06 0A                ASL $0A
F793   0E 80 FF             ASL $FF80
F796   FF FF FF             ISC $FFFF,X
F799   FF FF FF             ISC $FFFF,X
F79C   20 FF 08             JSR $08FF
F79F   09 80                ORA #$80
F7A1   10 C0                BPL LF763
F7A3   50 30                BVC LF7D5
F7A5   30 F0                BMI LF797
F7A7   70 90                BVS LF739
F7A9   B0 D0                BCS LF77B
F7AB   FF FF FF             ISC $FFFF,X
F7AE   00                   BRK
F7AF   0A                   ASL A
F7B0   FF FF FF             ISC $FFFF,X
F7B3   FF F0 FF             ISC $FFF0,X
F7B6   FF FF FF             ISC $FFFF,X
F7B9   FF FF FF             ISC $FFFF,X
F7BC   60                   RTS
F7BD   FF 01 0B             ISC $0B01,X
F7C0   FF FF FF             ISC $FFFF,X
F7C3   FF 70 FF             ISC $FF70,X
F7C6   FF FF FF             ISC $FFFF,X
F7C9   FF C0 F0             ISC $F0C0,X
F7CC   D0 FF                BNE LF7CD
F7CE   01 05                ORA ($05,X)
F7D0   03 07                SLO ($07,X)
F7D2   0B FF                ANC #$FF
F7D4   90 FF                BCC LF7D5
F7D6   FF FF FF             ISC $FFFF,X
F7D9   FF FF FF             ISC $FFFF,X
F7DC   A0 FF                LDY #$FF
F7DE   0C 0D FF             NOP $FF0D
F7E1   FF FF FF             ISC $FFFF,X
F7E4   B0 FF                BCS LF7E5
F7E6   FF FF FF             ISC $FFFF,X
F7E9   FF 40 60             ISC $6040,X
F7EC   E0 FF                CPX #$FF
F7EE   04 0E                NOP $0E
F7F0   FF FF FF             ISC $FFFF,X
F7F3   FF D0 FF             ISC $FFD0,X
F7F6   FF FF FF             ISC $FFFF,X
F7F9   FF FF FF             ISC $FFFF,X
F7FC   E0 FF                CPX #$FF
F7FE   05 FF                ORA $FF
F800   FF FF FF             ISC $FFFF,X
F803   FF FF FF             ISC $FFFF,X
F806   FF FF FF             ISC $FFFF,X
F809   FF 50 70             ISC $7050,X
F80C   A9 00      LF80C     LDA #$00
F80E   85 46                STA $46
F810   85 49                STA $49
F812   A4 2D                LDY $2D
F814   A5 41                LDA $41
F816   29 F0                AND #$F0
F818   4A                   LSR A
F819   4A                   LSR A
F81A   4A                   LSR A
F81B   4A                   LSR A
F81C   AA                   TAX
F81D   BD BF F8             LDA $F8BF,X
F820   0A                   ASL A
F821   0A                   ASL A
F822   0A                   ASL A
F823   85 45                STA $45
F825   A5 41                LDA $41
F827   29 0F                AND #$0F
F829   AA                   TAX
F82A   BD BF F8             LDA $F8BF,X
F82D   6A                   ROR A
F82E   66 46                ROR $46
F830   6A                   ROR A
F831   66 46                ROR $46
F833   29 07                AND #$07
F835   05 45                ORA $45
F837   91 27                STA ($27),Y
F839   C8                   INY
F83A   A5 42                LDA $42
F83C   29 F0                AND #$F0
F83E   4A                   LSR A
F83F   4A                   LSR A
F840   4A                   LSR A
F841   4A                   LSR A
F842   AA                   TAX
F843   BD BF F8             LDA $F8BF,X
F846   0A                   ASL A
F847   05 46                ORA $46
F849   85 46                STA $46
F84B   A5 42                LDA $42
F84D   29 0F                AND #$0F
F84F   AA                   TAX
F850   BD BF F8             LDA $F8BF,X
F853   2A                   ROL A
F854   2A                   ROL A
F855   2A                   ROL A
F856   2A                   ROL A
F857   85 47                STA $47
F859   2A                   ROL A
F85A   29 01                AND #$01
F85C   05 46                ORA $46
F85E   91 27                STA ($27),Y
F860   C8                   INY
F861   A5 43                LDA $43
F863   29 F0                AND #$F0
F865   4A                   LSR A
F866   4A                   LSR A
F867   4A                   LSR A
F868   4A                   LSR A
F869   AA                   TAX
F86A   BD BF F8             LDA $F8BF,X
F86D   18                   CLC
F86E   6A                   ROR A
F86F   05 47                ORA $47
F871   91 27                STA ($27),Y
F873   C8                   INY
F874   6A                   ROR A
F875   29 80                AND #$80
F877   85 48                STA $48
F879   A5 43                LDA $43
F87B   29 0F                AND #$0F
F87D   AA                   TAX
F87E   BD BF F8             LDA $F8BF,X
F881   0A                   ASL A
F882   0A                   ASL A
F883   29 7C                AND #$7C
F885   05 48                ORA $48
F887   85 48                STA $48
F889   A5 44                LDA $44
F88B   29 F0                AND #$F0
F88D   4A                   LSR A
F88E   4A                   LSR A
F88F   4A                   LSR A
F890   4A                   LSR A
F891   AA                   TAX
F892   BD BF F8             LDA $F8BF,X
F895   6A                   ROR A
F896   66 49                ROR $49
F898   6A                   ROR A
F899   66 49                ROR $49
F89B   6A                   ROR A
F89C   66 49                ROR $49
F89E   29 03                AND #$03
F8A0   05 48                ORA $48
F8A2   91 27                STA ($27),Y
F8A4   C8                   INY
F8A5   D0 08                BNE LF8AF
F8A7   A5 1F                LDA $1F
F8A9   85 28                STA $28
F8AB   A9 00                LDA #$00
F8AD   85 27                STA $27
F8AF   A5 44      LF8AF     LDA $44
F8B1   29 0F                AND #$0F
F8B3   AA                   TAX
F8B4   BD BF F8             LDA $F8BF,X
F8B7   05 49                ORA $49
F8B9   91 27                STA ($27),Y
F8BB   C8                   INY
F8BC   84 2D                STY $2D
F8BE   60                   RTS
F8BF   0A                   ASL A
F8C0   0B 12                ANC #$12
F8C2   13 0E                SLO ($0E),Y
F8C4   0F 16 17             SLO $1716
F8C7   09 19                ORA #$19
F8C9   1A                   NOP
F8CA   1B 0D 1D             SLO $1D0D,Y
F8CD   1E 15 A9             ASL $A915,X
F8D0   00                   BRK
F8D1   85 1E                STA $1E
F8D3   85 2E                STA $2E
F8D5   A9 60                LDA #$60
F8D7   85 27                STA $27
F8D9   A9 BB                LDA #$BB
F8DB   85 2D                STA $2D
F8DD   85 3F                STA $3F
F8DF   A5 28                LDA $28
F8E1   85 1F                STA $1F
F8E3   A9 00                LDA #$00
F8E5   85 28                STA $28
F8E7   A9 07                LDA #$07
F8E9   85 41                STA $41
F8EB   A4 2E                LDY $2E
F8ED   B1 1E                LDA ($1E),Y
F8EF   85 42                STA $42
F8F1   C8                   INY
F8F2   B1 1E                LDA ($1E),Y
F8F4   85 43                STA $43
F8F6   C8                   INY
F8F7   B1 1E                LDA ($1E),Y
F8F9   85 44                STA $44
F8FB   C8                   INY
F8FC   84 2E      LF8FC     STY $2E
F8FE   20 0C F8             JSR LF80C
F901   A4 2E                LDY $2E
F903   B1 1E                LDA ($1E),Y
F905   85 41                STA $41
F907   C8                   INY
F908   F0 11                BEQ LF91B
F90A   B1 1E                LDA ($1E),Y
F90C   85 42                STA $42
F90E   C8                   INY
F90F   B1 1E                LDA ($1E),Y
F911   85 43                STA $43
F913   C8                   INY
F914   B1 1E                LDA ($1E),Y
F916   85 44                STA $44
F918   C8                   INY
F919   D0 E1                BNE LF8FC
F91B   A5 30      LF91B     LDA $30
F91D   85 42                STA $42
F91F   A9 00                LDA #$00
F921   85 43                STA $43
F923   85 44                STA $44
F925   4C 0C F8             JMP LF80C
F928   A4 2D      LF928     LDY $2D
F92A   B1 27                LDA ($27),Y
F92C   AA                   TAX
F92D   29 F8                AND #$F8
F92F   85 45                STA $45
F931   8A                   TXA
F932   29 07                AND #$07
F934   85 46                STA $46
F936   C8                   INY
F937   D0 06                BNE LF93F
F939   A5 36                LDA $36
F93B   85 28                STA $28
F93D   A4 37                LDY $37
F93F   B1 27      LF93F     LDA ($27),Y
F941   AA                   TAX
F942   29 C0                AND #$C0
F944   05 46                ORA $46
F946   85 46                STA $46
F948   8A                   TXA
F949   29 3E                AND #$3E
F94B   85 47                STA $47
F94D   8A                   TXA
F94E   29 01                AND #$01
F950   85 48                STA $48
F952   C8                   INY
F953   B1 27                LDA ($27),Y
F955   AA                   TAX
F956   29 F0                AND #$F0
F958   05 48                ORA $48
F95A   85 48                STA $48
F95C   8A                   TXA
F95D   29 0F                AND #$0F
F95F   85 49                STA $49
F961   C8                   INY
F962   B1 27                LDA ($27),Y
F964   AA                   TAX
F965   29 80                AND #$80
F967   05 49                ORA $49
F969   85 49                STA $49
F96B   8A                   TXA
F96C   29 7C                AND #$7C
F96E   85 4A                STA $4A
F970   8A                   TXA
F971   29 03                AND #$03
F973   85 4B                STA $4B
F975   C8                   INY
F976   D0 08                BNE LF980
F978   A5 36                LDA $36
F97A   85 28                STA $28
F97C   A4 37                LDY $37
F97E   84 27                STY $27
F980   B1 27      LF980     LDA ($27),Y
F982   AA                   TAX
F983   29 E0                AND #$E0
F985   05 4B                ORA $4B
F987   85 4B                STA $4B
F989   8A                   TXA
F98A   29 1F                AND #$1F
F98C   85 4C                STA $4C
F98E   C8                   INY
F98F   84 2D                STY $2D
F991   A6 45                LDX $45
F993   BD 0C F7             LDA $F70C,X
F996   A6 46                LDX $46
F998   1D 0C F7             ORA $F70C,X
F99B   85 41                STA $41
F99D   A6 47                LDX $47
F99F   BD 0C F7             LDA $F70C,X
F9A2   A6 48                LDX $48
F9A4   1D 0E F7             ORA $F70E,X
F9A7   85 42                STA $42
F9A9   A6 49                LDX $49
F9AB   BD 1C F7             LDA $F71C,X
F9AE   A6 4A                LDX $4A
F9B0   1D 0D F7             ORA $F70D,X
F9B3   85 43                STA $43
F9B5   A6 4B                LDX $4B
F9B7   BD 29 F7             LDA $F729,X
F9BA   A6 4C                LDX $4C
F9BC   1D FF F6             ORA $F6FF,X
F9BF   85 44                STA $44
F9C1   60                   RTS
F9C2   A9 00                LDA #$00
F9C4   85 2D                STA $2D
F9C6   85 1E                STA $1E
F9C8   85 2E                STA $2E
F9CA   A9 01                LDA #$01
F9CC   85 36                STA $36
F9CE   A9 1B                LDA #$1B
F9D0   85 37                STA $37
F9D2   A5 28                LDA $28
F9D4   85 1F                STA $1F
F9D6   20 28 F9             JSR LF928
F9D9   A5 41                LDA $41
F9DB   85 2F                STA $2F
F9DD   A4 2E                LDY $2E
F9DF   A5 42                LDA $42
F9E1   91 1E                STA ($1E),Y
F9E3   C8                   INY
F9E4   A5 43                LDA $43
F9E6   91 1E                STA ($1E),Y
F9E8   C8                   INY
F9E9   A5 44                LDA $44
F9EB   91 1E                STA ($1E),Y
F9ED   C8                   INY
F9EE   84 2E      LF9EE     STY $2E
F9F0   20 28 F9             JSR LF928
F9F3   A4 2E                LDY $2E
F9F5   A5 41                LDA $41
F9F7   91 1E                STA ($1E),Y
F9F9   C8                   INY
F9FA   F0 11                BEQ LFA0D
F9FC   A5 42                LDA $42
F9FE   91 1E                STA ($1E),Y
FA00   C8                   INY
FA01   A5 43                LDA $43
FA03   91 1E                STA ($1E),Y
FA05   C8                   INY
FA06   A5 44                LDA $44
FA08   91 1E                STA ($1E),Y
FA0A   C8                   INY
FA0B   D0 E1                BNE LF9EE
FA0D   A5 1F      LFA0D     LDA $1F
FA0F   85 28                STA $28
FA11   60                   RTS
FA12   A4 33      LFA12     LDY $33
FA14   99 02 00             STA $0002,Y
FA17   A5 3F                LDA $3F
FA19   F0 03                BEQ LFA1E
FA1B   20 18 F6             JSR LF618
FA1E   20 36 FA   LFA1E     JSR LFA36
FA21   A6 3A                LDX $3A
FA23   9A                   TXS
FA24   4C 9D F1             JMP LF19D
FA27   A9 A0      LFA27     LDA #$A0
FA29   85 2B                STA $2B
FA2B   A5 01                LDA $01
FA2D   09 04                ORA #$04
FA2F   85 01                STA $01
FA31   A9 A7                LDA #$A7
FA33   85 39                STA $39
FA35   60                   RTS
FA36   A5 2B      LFA36     LDA $2B
FA38   09 10                ORA #$10
FA3A   85 2B                STA $2B
FA3C   A9 FF                LDA #$FF
FA3E   85 39                STA $39
FA40   60                   RTS
FA41   A5 01      LFA41     LDA $01
FA43   29 10                AND #$10
FA45   C5 24                CMP $24
FA47   85 24                STA $24
FA49   D0 06                BNE LFA51
FA4B   A5 FE                LDA $FE
FA4D   D0 12                BNE LFA61
FA4F   F0 20                BEQ LFA71
FA51   A9 FF      LFA51     LDA #$FF
FA53   85 FE                STA $FE
FA55   A5 01                LDA $01
FA57   09 04                ORA #$04
FA59   85 01                STA $01
FA5B   A9 01                LDA #$01
FA5D   85 22                STA $22
FA5F   D0 10                BNE LFA71
FA61   C6 FE      LFA61     DEC $FE
FA63   D0 0C                BNE LFA71
FA65   A5 2B                LDA $2B
FA67   C9 00                CMP #$00
FA69   D0 06                BNE LFA71
FA6B   A5 01                LDA $01
FA6D   29 FB                AND #$FB
FA6F   85 01                STA $01
FA71   A5 54      LFA71     LDA $54
FA73   F0 13                BEQ LFA88
FA75   C9 02                CMP #$02
FA77   D0 06                BNE LFA7F
FA79   A9 00                LDA #$00
FA7B   85 54                STA $54
FA7D   F0 09                BEQ LFA88
FA7F   85 3B      LFA7F     STA $3B
FA81   A9 02                LDA #$02
FA83   85 54                STA $54
FA85   4C C5 FA             JMP LFAC5
FA88   A6 31      LFA88     LDX $31
FA8A   30 07                BMI LFA93
FA8C   A5 2B                LDA $2B
FA8E   A8                   TAY
FA8F   C9 20                CMP #$20
FA91   D0 03                BNE LFA96
FA93   4C 00 FB   LFA93     JMP LFB00
FA96   C6 39      LFA96     DEC $39
FA98   D0 1B                BNE LFAB5
FA9A   98                   TYA
FA9B   10 04                BPL LFAA1
FA9D   29 7F                AND #$7F
FA9F   85 2B                STA $2B
FAA1   29 10      LFAA1     AND #$10
FAA3   F0 10                BEQ LFAB5
FAA5   A5 01                LDA $01
FAA7   29 FB                AND #$FB
FAA9   85 01                STA $01
FAAB   A9 FF                LDA #$FF
FAAD   85 31                STA $31
FAAF   A9 00                LDA #$00
FAB1   85 2B                STA $2B
FAB3   F0 DE                BEQ LFA93
FAB5   98         LFAB5     TYA
FAB6   29 40                AND #$40
FAB8   D0 03                BNE LFABD
FABA   4C 00 FB             JMP LFB00
FABD   A5 4D      LFABD     LDA $4D
FABF   D0 1B                BNE LFADC
FAC1   A5 3B                LDA $3B
FAC3   F0 0E                BEQ LFAD3
FAC5   A5 3B      LFAC5     LDA $3B
FAC7   10 24                BPL LFAED
FAC9   E6 3B                INC $3B
FACB   A5 01                LDA $01
FACD   38                   SEC
FACE   E9 01                SBC #$01
FAD0   4C F4 FA             JMP LFAF4
FAD3   A9 02      LFAD3     LDA #$02
FAD5   85 39                STA $39
FAD7   85 4D                STA $4D
FAD9   4C 00 FB             JMP LFB00
FADC   C6 39      LFADC     DEC $39
FADE   D0 20                BNE LFB00
FAE0   A5 2B                LDA $2B
FAE2   29 BF                AND #$BF
FAE4   85 2B                STA $2B
FAE6   A9 00                LDA #$00
FAE8   85 4D                STA $4D
FAEA   4C 00 FB             JMP LFB00
FAED   C6 3B      LFAED     DEC $3B
FAEF   A5 01                LDA $01
FAF1   18                   CLC
FAF2   69 01                ADC #$01
FAF4   29 03      LFAF4     AND #$03
FAF6   85 3C                STA $3C
FAF8   A5 01                LDA $01
FAFA   29 FC                AND #$FC
FAFC   05 3C                ORA $3C
FAFE   85 01                STA $01
FB00   68         LFB00     PLA
FB01   A8                   TAY
FB02   68                   PLA
FB03   AA                   TAX
FB04   68                   PLA
FB05   40                   RTI
FB06   A9 05      LFB06     LDA #$05
FB08   8D 00 01             STA $0100
FB0B   A2 1C      LFB0B     LDX #$1C
FB0D   20 87 FD             JSR LFD87
FB10   A2 14                LDX #$14
FB12   A0 00                LDY #$00
FB14   A9 FF                LDA #$FF
FB16   8D 01 40             STA $4001
FB19   24 01      LFB19     BIT $01
FB1B   10 FC                BPL LFB19
FB1D   2C 00 40             BIT $4000
FB20   88                   DEY
FB21   D0 F6                BNE LFB19
FB23   CA                   DEX
FB24   D0 F3                BNE LFB19
FB26   20 79 FD             JSR LFD79
FB29   A0 FF                LDY #$FF
FB2B   A2 FF      LFB2B     LDX #$FF
FB2D   AD 02 40   LFB2D     LDA $4002
FB30   29 40                AND #$40
FB32   F0 10                BEQ LFB44
FB34   CA                   DEX
FB35   D0 F6                BNE LFB2D
FB37   88                   DEY
FB38   D0 F1                BNE LFB2B
FB3A   CE 00 01   LFB3A     DEC $0100
FB3D   D0 CC                BNE LFB0B
FB3F   A9 02                LDA #$02
FB41   4C 6F FD             JMP LFD6F
FB44   A0 00      LFB44     LDY #$00
FB46   A2 00                LDX #$00
FB48   AD 02 40   LFB48     LDA $4002
FB4B   29 40                AND #$40
FB4D   F0 F9                BEQ LFB48
FB4F   AD 02 40   LFB4F     LDA $4002
FB52   C8                   INY
FB53   D0 01                BNE LFB56
FB55   E8                   INX
FB56   29 40      LFB56     AND #$40
FB58   D0 F5                BNE LFB4F
FB5A   8E 02 01             STX $0102
FB5D   8C 01 01             STY $0101
FB60   A9 00                LDA #$00
FB62   85 FF                STA $FF
FB64   A2 08                LDX #$08
FB66   BD 29 F1   LFB66     LDA $F129,X
FB69   CD 02 01             CMP $0102
FB6C   F0 05                BEQ LFB73
FB6E   CA                   DEX
FB6F   10 F5                BPL LFB66
FB71   30 C7                BMI LFB3A
FB73   BD 32 F1   LFB73     LDA $F132,X
FB76   8D 03 01             STA $0103
FB79   60                   RTS
FB7A   A5 40      LFB7A     LDA $40
FB7C   10 1B                BPL LFB99
FB7E   A9 60                LDA #$60
FB80   85 2B                STA $2B
FB82   A9 01                LDA #$01
FB84   85 29                STA $29
FB86   85 40                STA $40
FB88   A9 A4                LDA #$A4
FB8A   85 3B                STA $3B
FB8C   A5 01                LDA $01
FB8E   29 FC                AND #$FC
FB90   85 01                STA $01
FB92   A9 0A                LDA #$0A
FB94   85 51                STA $51
FB96   4C 41 FA             JMP LFA41
FB99   A0 00      LFB99     LDY #$00
FB9B   B1 20                LDA ($20),Y
FB9D   C5 40                CMP $40
FB9F   F0 07                BEQ LFBA8
FBA1   A5 40                LDA $40
FBA3   91 20                STA ($20),Y
FBA5   4C 41 FA             JMP LFA41
FBA8   A5 01      LFBA8     LDA $01
FBAA   29 10                AND #$10
FBAC   D0 05                BNE LFBB3
FBAE   A9 08                LDA #$08
FBB0   4C 68 FD             JMP LFD68
FBB3   A5 FF      LFBB3     LDA $FF
FBB5   10 03                BPL LFBBA
FBB7   20 06 FB             JSR LFB06
FBBA   AD 03 01   LFBBA     LDA $0103
FBBD   85 4E                STA $4E
FBBF   18                   CLC
FBC0   A9 03                LDA #$03
FBC2   85 21                STA $21
FBC4   A9 00                LDA #$00
FBC6   85 20                STA $20
FBC8   85 53                STA $53
FBCA   A0 00                LDY #$00
FBCC   A9 08      LFBCC     LDA #$08
FBCE   91 20                STA ($20),Y
FBD0   C8                   INY
FBD1   A9 00                LDA #$00
FBD3   91 20                STA ($20),Y
FBD5   C8                   INY
FBD6   A5 53                LDA $53
FBD8   91 20                STA ($20),Y
FBDA   C8                   INY
FBDB   A5 40                LDA $40
FBDD   91 20                STA ($20),Y
FBDF   C8                   INY
FBE0   A5 15                LDA $15
FBE2   91 20                STA ($20),Y
FBE4   C8                   INY
FBE5   A5 14                LDA $14
FBE7   91 20                STA ($20),Y
FBE9   C8                   INY
FBEA   A9 0F                LDA #$0F
FBEC   91 20                STA ($20),Y
FBEE   C8                   INY
FBEF   91 20                STA ($20),Y
FBF1   C8                   INY
FBF2   98                   TYA
FBF3   48                   PHA
FBF4   A2 07                LDX #$07
FBF6   A9 00                LDA #$00
FBF8   85 30                STA $30
FBFA   88         LFBFA     DEY
FBFB   B1 20                LDA ($20),Y
FBFD   45 30                EOR $30
FBFF   85 30                STA $30
FC01   CA                   DEX
FC02   D0 F6                BNE LFBFA
FC04   91 20                STA ($20),Y
FC06   68                   PLA
FC07   A8                   TAY
FC08   E6 53                INC $53
FC0A   A5 53                LDA $53
FC0C   C5 57                CMP $57
FC0E   90 BC                BCC LFBCC
FC10   20 A9 FD             JSR LFDA9
FC13   A0 BA                LDY #$BA
FC15   B1 20      LFC15     LDA ($20),Y
FC17   A2 45                LDX #$45
FC19   86 20                STX $20
FC1B   91 20                STA ($20),Y
FC1D   A2 00                LDX #$00
FC1F   86 20                STX $20
FC21   88                   DEY
FC22   C0 FF                CPY #$FF
FC24   D0 EF                BNE LFC15
FC26   A0 44                LDY #$44
FC28   B9 1B 01   LFC28     LDA $011B,Y
FC2B   91 20                STA ($20),Y
FC2D   88                   DEY
FC2E   10 F8                BPL LFC28
FC30   18                   CLC
FC31   A9 03                LDA #$03
FC33   69 02                ADC #$02
FC35   85 28                STA $28
FC37   A9 00                LDA #$00
FC39   A8                   TAY
FC3A   91 27      LFC3A     STA ($27),Y
FC3C   C8                   INY
FC3D   D0 FB                BNE LFC3A
FC3F   20 0A F6             JSR LF60A
FC42   20 CF F8             JSR LF8CF
FC45   A9 00                LDA #$00
FC47   85 4F                STA $4F
FC49   A2 03                LDX #$03
FC4B   20 87 FD             JSR LFD87
FC4E   A9 FF      LFC4E     LDA #$FF
FC50   8D 01 40             STA $4001
FC53   A0 05                LDY #$05
FC55   24 01      LFC55     BIT $01
FC57   10 FC                BPL LFC55
FC59   2C 00 40             BIT $4000
FC5C   88                   DEY
FC5D   D0 F6                BNE LFC55
FC5F   A9 0A                LDA #$0A
FC61   85 50                STA $50
FC63   A4 4F                LDY $4F
FC65   24 01      LFC65     BIT $01
FC67   10 FC                BPL LFC65
FC69   2C 00 40             BIT $4000
FC6C   B1 20                LDA ($20),Y
FC6E   8D 01 40             STA $4001
FC71   C8                   INY
FC72   C6 50                DEC $50
FC74   D0 EF                BNE LFC65
FC76   A0 09                LDY #$09
FC78   24 01      LFC78     BIT $01
FC7A   10 FC                BPL LFC78
FC7C   2C 00 40             BIT $4000
FC7F   A9 55                LDA #$55
FC81   8D 01 40             STA $4001
FC84   88                   DEY
FC85   D0 F1                BNE LFC78
FC87   A9 FF                LDA #$FF
FC89   A0 05                LDY #$05
FC8B   24 01      LFC8B     BIT $01
FC8D   10 FC                BPL LFC8B
FC8F   2C 00 40             BIT $4000
FC92   8D 01 40             STA $4001
FC95   88                   DEY
FC96   D0 F3                BNE LFC8B
FC98   A0 BB                LDY #$BB
FC9A   24 01      LFC9A     BIT $01
FC9C   10 FC                BPL LFC9A
FC9E   2C 00 40             BIT $4000
FCA1   B9 60 00             LDA $0060,Y
FCA4   8D 01 40             STA $4001
FCA7   C8                   INY
FCA8   D0 F0                BNE LFC9A
FCAA   24 01      LFCAA     BIT $01
FCAC   10 FC                BPL LFCAA
FCAE   2C 00 40             BIT $4000
FCB1   B1 27                LDA ($27),Y
FCB3   8D 01 40             STA $4001
FCB6   C8                   INY
FCB7   D0 F1                BNE LFCAA
FCB9   A9 55                LDA #$55
FCBB   A4 4E                LDY $4E
FCBD   24 01      LFCBD     BIT $01
FCBF   10 FC                BPL LFCBD
FCC1   2C 00 40             BIT $4000
FCC4   8D 01 40             STA $4001
FCC7   88                   DEY
FCC8   D0 F3                BNE LFCBD
FCCA   A5 4F                LDA $4F
FCCC   18                   CLC
FCCD   69 0A                ADC #$0A
FCCF   85 4F                STA $4F
FCD1   C6 53                DEC $53
FCD3   F0 03                BEQ LFCD8
FCD5   4C 4E FC             JMP LFC4E
FCD8   24 01      LFCD8     BIT $01
FCDA   10 FC                BPL LFCD8
FCDC   2C 00 40             BIT $4000
FCDF   24 01      LFCDF     BIT $01
FCE1   10 FC                BPL LFCDF
FCE3   2C 00 40             BIT $4000
FCE6   20 79 FD             JSR LFD79
FCE9   A9 C8                LDA #$C8
FCEB   85 52                STA $52
FCED   A9 00      LFCED     LDA #$00
FCEF   85 4F                STA $4F
FCF1   A5 57                LDA $57
FCF3   85 53                STA $53
FCF5   A9 0A      LFCF5     LDA #$0A
FCF7   85 50                STA $50
FCF9   20 60 F5             JSR LF560
FCFC   A4 4F                LDY $4F
FCFE   B1 20      LFCFE     LDA ($20),Y
FD00   24 01      LFD00     BIT $01
FD02   10 FC                BPL LFD00
FD04   2C 00 40             BIT $4000
FD07   CD 01 40             CMP $4001
FD0A   D0 0F                BNE LFD1B
FD0C   C8                   INY
FD0D   C6 50                DEC $50
FD0F   D0 ED                BNE LFCFE
FD11   18                   CLC
FD12   A5 4F                LDA $4F
FD14   69 0A                ADC #$0A
FD16   85 4F                STA $4F
FD18   4C 24 FD             JMP LFD24
FD1B   C6 52      LFD1B     DEC $52
FD1D   D0 CE                BNE LFCED
FD1F   A9 06                LDA #$06
FD21   4C 68 FD             JMP LFD68
FD24   20 60 F5   LFD24     JSR LF560
FD27   A0 BB                LDY #$BB
FD29   B9 60 00   LFD29     LDA $0060,Y
FD2C   24 01      LFD2C     BIT $01
FD2E   10 FC                BPL LFD2C
FD30   2C 00 40             BIT $4000
FD33   CD 01 40             CMP $4001
FD36   D0 E3                BNE LFD1B
FD38   C8                   INY
FD39   D0 EE                BNE LFD29
FD3B   B1 27      LFD3B     LDA ($27),Y
FD3D   24 01      LFD3D     BIT $01
FD3F   10 FC                BPL LFD3D
FD41   2C 00 40             BIT $4000
FD44   CD 01 40             CMP $4001
FD47   D0 D2                BNE LFD1B
FD49   C8                   INY
FD4A   D0 EF                BNE LFD3B
FD4C   C6 53                DEC $53
FD4E   D0 A5                BNE LFCF5
FD50   E6 40                INC $40
FD52   A5 40                LDA $40
FD54   C9 24                CMP #$24
FD56   B0 03                BCS LFD5B
FD58   4C 41 FA             JMP LFA41
FD5B   A9 FF      LFD5B     LDA #$FF
FD5D   85 40                STA $40
FD5F   A9 00                LDA #$00
FD61   85 3F                STA $3F
FD63   A9 01                LDA #$01
FD65   4C 12 FA             JMP LFA12
FD68   C6 51      LFD68     DEC $51
FD6A   F0 03                BEQ LFD6F
FD6C   4C 41 FA             JMP LFA41
FD6F   A0 FF      LFD6F     LDY #$FF
FD71   84 40                STY $40
FD73   C8                   INY
FD74   84 3F                STY $3F
FD76   4C 12 FA             JMP LFA12
FD79   AD 02 40   LFD79     LDA $4002
FD7C   09 10                ORA #$10
FD7E   8D 02 40             STA $4002
FD81   A9 00                LDA #$00
FD83   8D 04 40             STA $4004
FD86   60                   RTS
FD87   AD 02 40   LFD87     LDA $4002
FD8A   29 EF                AND #$EF
FD8C   8D 02 40             STA $4002
FD8F   A9 FF                LDA #$FF
FD91   8D 04 40             STA $4004
FD94   A9 55                LDA #$55
FD96   8D 01 40             STA $4001
FD99   A0 00                LDY #$00
FD9B   24 01      LFD9B     BIT $01
FD9D   10 FC                BPL LFD9B
FD9F   2C 00 40             BIT $4000
FDA2   88                   DEY
FDA3   D0 F6                BNE LFD9B
FDA5   CA                   DEX
FDA6   D0 F3                BNE LFD9B
FDA8   60                   RTS
FDA9   A9 00      LFDA9     LDA #$00
FDAB   85 28                STA $28
FDAD   85 1E                STA $1E
FDAF   85 2E                STA $2E
FDB1   A9 BB                LDA #$BB
FDB3   85 2D                STA $2D
FDB5   A9 60                LDA #$60
FDB7   85 27                STA $27
FDB9   18                   CLC
FDBA   A9 03                LDA #$03
FDBC   85 1F                STA $1F
FDBE   A4 2E      LFDBE     LDY $2E
FDC0   B1 1E                LDA ($1E),Y
FDC2   85 41                STA $41
FDC4   C8                   INY
FDC5   B1 1E                LDA ($1E),Y
FDC7   85 42                STA $42
FDC9   C8                   INY
FDCA   B1 1E                LDA ($1E),Y
FDCC   85 43                STA $43
FDCE   C8                   INY
FDCF   B1 1E                LDA ($1E),Y
FDD1   85 44                STA $44
FDD3   C8                   INY
FDD4   F0 08                BEQ LFDDE
FDD6   84 2E                STY $2E
FDD8   20 0C F8             JSR LF80C
FDDB   4C BE FD             JMP LFDBE
FDDE   4C 0C F8   LFDDE     JMP LF80C
FDE1   81 FF                STA ($FF,X)
FDE3   FF FF FF             ISC $FFFF,X
FDE6   FF FF FF             ISC $FFFF,X
FDE9   FF FF FF             ISC $FFFF,X
FDEC   FF FF FF             ISC $FFFF,X
FDEF   FF FF FF             ISC $FFFF,X
FDF2   FF FF FF             ISC $FFFF,X
FDF5   FF FF FF             ISC $FFFF,X
FDF8   FF FF FF             ISC $FFFF,X
FDFB   FF FF FF             ISC $FFFF,X
FDFE   FF FF FF             ISC $FFFF,X
FE01   FF FF FF             ISC $FFFF,X
FE04   FF FF FF             ISC $FFFF,X
FE07   FF FF FF             ISC $FFFF,X
FE0A   FF FF FF             ISC $FFFF,X
FE0D   FF FF FF             ISC $FFFF,X
FE10   FF FF FF             ISC $FFFF,X
FE13   FF FF FF             ISC $FFFF,X
FE16   FF FF FF             ISC $FFFF,X
FE19   FF FF FF             ISC $FFFF,X
FE1C   FF FF FF             ISC $FFFF,X
FE1F   FF FF FF             ISC $FFFF,X
FE22   FF FF FF             ISC $FFFF,X
FE25   FF FF FF             ISC $FFFF,X
FE28   FF FF FF             ISC $FFFF,X
FE2B   FF FF FF             ISC $FFFF,X
FE2E   FF FF FF             ISC $FFFF,X
FE31   FF FF FF             ISC $FFFF,X
FE34   FF FF FF             ISC $FFFF,X
FE37   FF FF FF             ISC $FFFF,X
FE3A   FF FF FF             ISC $FFFF,X
FE3D   FF FF FF             ISC $FFFF,X
FE40   FF FF FF             ISC $FFFF,X
FE43   FF FF FF             ISC $FFFF,X
FE46   FF FF FF             ISC $FFFF,X
FE49   FF FF FF             ISC $FFFF,X
FE4C   FF FF FF             ISC $FFFF,X
FE4F   FF FF FF             ISC $FFFF,X
FE52   FF FF FF             ISC $FFFF,X
FE55   FF FF FF             ISC $FFFF,X
FE58   FF FF FF             ISC $FFFF,X
FE5B   FF FF FF             ISC $FFFF,X
FE5E   FF FF FF             ISC $FFFF,X
FE61   FF FF FF             ISC $FFFF,X
FE64   FF FF FF             ISC $FFFF,X
FE67   FF FF FF             ISC $FFFF,X
FE6A   FF FF FF             ISC $FFFF,X
FE6D   FF FF FF             ISC $FFFF,X
FE70   FF FF FF             ISC $FFFF,X
FE73   FF FF FF             ISC $FFFF,X
FE76   FF FF FF             ISC $FFFF,X
FE79   FF FF FF             ISC $FFFF,X
FE7C   FF FF FF             ISC $FFFF,X
FE7F   FF FF FF             ISC $FFFF,X
FE82   FF FF FF             ISC $FFFF,X
FE85   FF FF FF             ISC $FFFF,X
FE88   FF FF FF             ISC $FFFF,X
FE8B   FF FF FF             ISC $FFFF,X
FE8E   FF FF FF             ISC $FFFF,X
FE91   FF FF FF             ISC $FFFF,X
FE94   FF FF FF             ISC $FFFF,X
FE97   FF FF FF             ISC $FFFF,X
FE9A   FF FF FF             ISC $FFFF,X
FE9D   FF FF FF             ISC $FFFF,X
FEA0   FF FF FF             ISC $FFFF,X
FEA3   FF FF FF             ISC $FFFF,X
FEA6   FF FF FF             ISC $FFFF,X
FEA9   FF FF FF             ISC $FFFF,X
FEAC   FF FF FF             ISC $FFFF,X
FEAF   FF FF FF             ISC $FFFF,X
FEB2   FF FF FF             ISC $FFFF,X
FEB5   FF FF FF             ISC $FFFF,X
FEB8   FF FF FF             ISC $FFFF,X
FEBB   FF FF FF             ISC $FFFF,X
FEBE   FF FF FF             ISC $FFFF,X
FEC1   FF FF FF             ISC $FFFF,X
FEC4   FF FF FF             ISC $FFFF,X
FEC7   FF FF FF             ISC $FFFF,X
FECA   FF FF FF             ISC $FFFF,X
FECD   FF FF FF             ISC $FFFF,X
FED0   FF FF FF             ISC $FFFF,X
FED3   FF FF FF             ISC $FFFF,X
FED6   FF FF FF             ISC $FFFF,X
FED9   FF FF FF             ISC $FFFF,X
FEDC   FF FF FF             ISC $FFFF,X
FEDF   FF FF FF             ISC $FFFF,X
FEE2   FF FF FF             ISC $FFFF,X
FEE5   FF FF FF             ISC $FFFF,X
FEE8   FF FF FF             ISC $FFFF,X
FEEB   FF FF FF             ISC $FFFF,X
FEEE   FF FF FF             ISC $FFFF,X
FEF1   FF FF FF             ISC $FFFF,X
FEF4   FF FF FF             ISC $FFFF,X
FEF7   FF FF FF             ISC $FFFF,X
FEFA   FF FF FF             ISC $FFFF,X
FEFD   FF FF FF             ISC $FFFF,X
FF00   FF FF FF             ISC $FFFF,X
FF03   FF FF FF             ISC $FFFF,X
FF06   FF FF FF             ISC $FFFF,X
FF09   FF FF FF             ISC $FFFF,X
FF0C   FF FF FF             ISC $FFFF,X
FF0F   FF FF FF             ISC $FFFF,X
FF12   FF FF FF             ISC $FFFF,X
FF15   FF FF FF             ISC $FFFF,X
FF18   FF FF FF             ISC $FFFF,X
FF1B   FF FF FF             ISC $FFFF,X
FF1E   FF FF FF             ISC $FFFF,X
FF21   FF FF FF             ISC $FFFF,X
FF24   FF FF FF             ISC $FFFF,X
FF27   FF FF FF             ISC $FFFF,X
FF2A   FF FF FF             ISC $FFFF,X
FF2D   FF FF FF             ISC $FFFF,X
FF30   FF FF FF             ISC $FFFF,X
FF33   FF FF FF             ISC $FFFF,X
FF36   FF FF FF             ISC $FFFF,X
FF39   FF FF FF             ISC $FFFF,X
FF3C   FF FF FF             ISC $FFFF,X
FF3F   FF FF FF             ISC $FFFF,X
FF42   FF FF FF             ISC $FFFF,X
FF45   FF FF FF             ISC $FFFF,X
FF48   FF FF FF             ISC $FFFF,X
FF4B   FF FF FF             ISC $FFFF,X
FF4E   FF FF FF             ISC $FFFF,X
FF51   FF FF FF             ISC $FFFF,X
FF54   FF FF FF             ISC $FFFF,X
FF57   FF FF FF             ISC $FFFF,X
FF5A   FF FF FF             ISC $FFFF,X
FF5D   FF FF FF             ISC $FFFF,X
FF60   FF FF FF             ISC $FFFF,X
FF63   FF FF FF             ISC $FFFF,X
FF66   FF FF FF             ISC $FFFF,X
FF69   FF FF FF             ISC $FFFF,X
FF6C   FF FF FF             ISC $FFFF,X
FF6F   FF FF FF             ISC $FFFF,X
FF72   FF FF FF             ISC $FFFF,X
FF75   FF FF FF             ISC $FFFF,X
FF78   FF FF FF             ISC $FFFF,X
FF7B   FF FF FF             ISC $FFFF,X
FF7E   FF FF FF             ISC $FFFF,X
FF81   FF FF FF             ISC $FFFF,X
FF84   FF FF FF             ISC $FFFF,X
FF87   FF FF FF             ISC $FFFF,X
FF8A   FF FF FF             ISC $FFFF,X
FF8D   FF FF FF             ISC $FFFF,X
FF90   FF FF FF             ISC $FFFF,X
FF93   FF FF FF             ISC $FFFF,X
FF96   FF FF FF             ISC $FFFF,X
FF99   FF FF FF             ISC $FFFF,X
FF9C   FF FF FF             ISC $FFFF,X
FF9F   FF FF FF             ISC $FFFF,X
FFA2   FF FF FF             ISC $FFFF,X
FFA5   FF FF FF             ISC $FFFF,X
FFA8   FF FF FF             ISC $FFFF,X
FFAB   FF FF FF             ISC $FFFF,X
FFAE   FF FF FF             ISC $FFFF,X
FFB1   FF FF FF             ISC $FFFF,X
FFB4   FF FF FF             ISC $FFFF,X
FFB7   FF FF FF             ISC $FFFF,X
FFBA   FF FF FF             ISC $FFFF,X
FFBD   FF FF FF             ISC $FFFF,X
FFC0   FF FF FF             ISC $FFFF,X
FFC3   FF FF FF             ISC $FFFF,X
FFC6   FF FF FF             ISC $FFFF,X
FFC9   FF FF FF             ISC $FFFF,X
FFCC   FF FF FF             ISC $FFFF,X
FFCF   FF FF FF             ISC $FFFF,X
FFD2   FF FF FF             ISC $FFFF,X
FFD5   FF FF FF             ISC $FFFF,X
FFD8   FF FF FF             ISC $FFFF,X
FFDB   FF FF FF             ISC $FFFF,X
FFDE   FF FF FF             ISC $FFFF,X
FFE1   FF FF FF             ISC $FFFF,X
FFE4   FF FF A7             ISC $A7FF,X
FFE7   C9 3B                CMP #$3B
FFE9   F1 51                SBC ($51),Y
FFEB   CE 8B CE             DEC $CE8B
FFEE   00                   BRK
FFEF   05 03                ORA $03
FFF1   05 06                ORA $06
FFF3   05 09                ORA $09
FFF5   05 0C                ORA $0C
FFF7   05 0F                ORA $0F
FFF9   05 39                ORA $39
FFFB   EA                   NOP
FFFC   B5 E9                LDA $E9,X
FFFE   95 F1                STA $F1,X
                            .END

;auto-generated symbols and labels
 LC02D      $C02D
 LEABD      $EABD
 LC071      $C071
 LC08B      $C08B
 LC0F6      $C0F6
 LC0A8      $C0A8
 LC0C0      $C0C0
 LE984      $E984
 LC0BC      $C0BC
 LC133      $C133
 LC135      $C135
 LC0CF      $C0CF
 LC0B3      $C0B3
 LC0D6      $C0D6
 LC0F2      $C0F2
 LDBF7      $DBF7
 LC12A      $C12A
 LD217      $D217
 LC114      $C114
 LC127      $C127
 LC130      $C130
 LD0D3      $D0D3
 LC143      $C143
 LC14E      $C14E
 LC163      $C163
 LC169      $C169
 LC176      $C176
 LC17E      $C17E
 LC189      $C189
 LC1A7      $C1A7
 LD4F9      $D4F9
 LC1A3      $C1A3
 LC1B1      $C1B1
 LC1C0      $C1C0
 LC1FB      $C1FB
 LC220      $C220
 LC208      $C208
 LC203      $C203
 LC20A      $C20A
 LC1F7      $C1F7
 LC2B2      $C2B2
 LC22D      $C22D
 LE7FB      $E7FB
 LC24A      $C24A
 LD8EE      $D8EE
 LC39D      $C39D
 LC264      $C264
 LC254      $C254
 LC26E      $C26E
 LC2D8      $C2D8
 LE806      $E806
 LF3F0      $F3F0
 LC2A7      $C2A7
 LD62D      $D62D
 LC2AB      $C2AB
 LE781      $E781
 LC352      $C352
 LC2CC      $C2CC
 LC452      $C452
 LC2CF      $C2CF
 LC2E2      $C2E2
 LC2DD      $C2DD
 LC2F4      $C2F4
 LC312      $C312
 LC33E      $C33E
 LC32F      $C32F
 LC336      $C336
 LC34A      $C34A
 LC388      $C388
 LC38A      $C38A
 LC36A      $C36A
 LC36D      $C36D
 LC355      $C355
 LC383      $C383
 LC39B      $C39B
 LC3B5      $C3B5
 LC3B4      $C3B4
 LC3C6      $C3C6
 LC3E7      $C3E7
 LC426      $C426
 LC40F      $C40F
 LC43C      $C43C
 LC436      $C436
 LC437      $C437
 LC4B2      $C4B2
 LC439      $C439
 LC4A5      $C4A5
 LC472      $C472
 LC46D      $C46D
 LC45A      $C45A
 LC4A0      $C4A0
 LC498      $C498
 LC4AF      $C4AF
 LC4DC      $C4DC
 LC4D5      $C4D5
 LC4C2      $C4C2
 LC527      $C527
 LC521      $C521
 LC722      $C722
 LC50D      $C50D
 LC477      $C477
 LC526      $C526
 LC508      $C508
 LC4ED      $C4ED
 LC4B7      $C4B7
 LC691      $C691
 LC55D      $C55D
 LC54D      $C54D
 LC53D      $C53D
 LC6FC      $C6FC
 LC56D      $C56D
 LC5BD      $C5BD
 LC566      $C566
 LC558      $C558
 LC547      $C547
 LC6E9      $C6E9
 LC58F      $C58F
 LC59F      $C59F
 LC5BC      $C5BC
 LC57A      $C57A
 LC5AE      $C5AE
 LC59A      $C59A
 LC66E      $C66E
 LC5D1      $C5D1
 LC679      $C679
 LC5CB      $C5CB
 LC5E3      $C5E3
 LC5CC      $C5CC
 LC787      $C787
 LC602      $C602
 LC600      $C600
 LC610      $C610
 LC61A      $C61A
 LC5EF      $C5EF
 LC641      $C641
 LC67F      $C67F
 LC68B      $C68B
 LD5C8      $D5C8
 LC6AF      $C6AF
 LD649      $D649
 LD63B      $D63B
 LC6E0      $C6E0
 LDF76      $DF76
 LC714      $C714
 LD61B      $D61B
 LC70E      $C70E
 LD31C      $D31C
 LC6BC      $C6BC
 LD5A0      $D5A0
 LC6A9      $C6A9
 LC74A      $C74A
 LD12A      $D12A
 LC740      $C740
 LD15E      $D15E
 LC769      $C769
 LC768      $C768
 LC762      $C762
 LC786      $C786
 LC778      $C778
 LC7A9      $C7A9
 LC78E      $C78E
 LC7BF      $C7BF
 LD1FB      $D1FB
 LC7D8      $C7D8
 LC7DD      $C7DD
 LC8E7      $C8E7
 LC7FC      $C7FC
 LC7EF      $C7EF
 LC898      $C898
 LC809      $C809
 LC81D      $C81D
 LC88D      $C88D
 LC82B      $C82B
 LC84C      $C84C
 LC854      $C854
 LC874      $C874
 LC864      $C864
 LC888      $C888
 LC879      $C879
 LC891      $C891
 LEF84      $EF84
 LEF4A      $EF4A
 LC8CE      $C8CE
 LC8C6      $C8C6
 LC8EC      $C8EC
 LEDB8      $EDB8
 LC582      $C582
 LC953      $C953
 LDEF2      $DEF2
 LC94E      $C94E
 LC997      $C997
 LC936      $C936
 LC95E      $C95E
 LC94C      $C94C
 LC573      $C573
 LC916      $C916
 LC28D      $C28D
 LEDCA      $EDCA
 LC975      $C975
 LD271      $D271
 LC98E      $C98E
 LED5F      $ED5F
 LD37D      $D37D
 LDF99      $DF99
 LD6EC      $D6EC
 LD808      $D808
 LC9C8      $C9C8
 LD819      $D819
 LC9E4      $C9E4
 LC9CA      $C9CA
 LE746      $E746
 LEF3C      $EF3C
 LCA01      $CA01
 LC9A2      $C9A2
 LC40A      $C40A
 LCA1D      $CA1D
 LCA18      $CA18
 LCA47      $CA47
 LC53A      $C53A
 LCA96      $CA96
 LCBC1      $CBC1
 LCAEF      $CAEF
 LD235      $D235
 LCA77      $CA77
 LCA7C      $CA7C
 LDB61      $DB61
 LCAAE      $CAAE
 LC27E      $C27E
 LCA9C      $CA9C
 LCBDC      $CBDC
 LD5D9      $D5D9
 LD81E      $D81E
 LCAC3      $CAC3
 LCB48      $CB48
 LCACD      $CACD
 LD0BA      $D0BA
 LCB2A      $CB2A
 LDEE1      $DEE1
 LCACA      $CACA
 LCADF      $CADF
 LDC39      $DC39
 LDAD7      $DAD7
 LCB26      $CB26
 LD4ED      $D4ED
 LCB47      $CB47
 LDED2      $DED2
 LD329      $D329
 LE306      $E306
 LE3D7      $E3D7
 LE476      $E476
 LCB8C      $CB8C
 LDF92      $DF92
 LE0CE      $E0CE
 LC74F      $C74F
 LCBDB      $CBDB
 LCBCB      $CBCB
 LCBE9      $CBE9
 LCBDF      $CBDF
 LCC3D      $CC3D
 LCC12      $CC12
 LCC42      $CC42
 LCC37      $CC37
 LD596      $D596
 LD58D      $D58D
 LCC5E      $CC5E
 LCC64      $CC64
 LCC97      $CC97
 LD338      $D338
 LCCE3      $CCE3
 LCD6E      $CD6E
 LCC92      $CC92
 LCCAA      $CCAA
 LCD22      $CD22
 LCD1D      $CD1D
 LCD34      $CD34
 LCD2A      $CD2A
 LCD18      $CD18
 LCD61      $CD61
 LCD4B      $CD4B
 LCD7D      $CD7D
 LCD84      $CD84
 LCD93      $CD93
 LCDBC      $CDBC
 LCD9D      $CD9D
 LCDD6      $CDD6
 LCDC2      $CDC2
 LCDC9      $CDC9
 LCEE6      $CEE6
 LF065      $F065
 LCE0B      $CE0B
 LCE1E      $CE1E
 LEDFB      $EDFB
 LCE23      $CE23
 LCE0C      $CE0C
 LCEE3      $CEE3
 LD5B3      $D5B3
 LD23F      $D23F
 LCE28      $CE28
 LCE2E      $CE2E
 LCE34      $CE34
 LD53F      $D53F
 LCE73      $CE73
 LD10D      $D10D
 LD5B7      $D5B7
 LD541      $D541
 LCEAB      $CEAB
 LCEC3      $CEC3
 LCED6      $CED6
 LCED1      $CED1
 LD6B0      $D6B0
 LCF1B      $CF1B
 LCF5D      $CF5D
 LCF60      $CF60
 LCF8F      $CF8F
 LCF30      $CF30
 LCF3B      $CF3B
 LCF46      $CF46
 LCFA3      $CFA3
 LCF9B      $CF9B
 LCF3F      $CF3F
 LCF5C      $CF5C
 LCF8B      $CF8B
 LCF6F      $CF6F
 LCFA6      $CFA6
 LCFB2      $CFB2
 LCFD3      $CFD3
 LCFB0      $CFB0
 LCFC3      $CFC3
 LCFBF      $CFBF
 LCFDF      $CFDF
 LCFFB      $CFFB
 LCFF5      $CFF5
 LD001      $D001
 LD3E4      $D3E4
 LD015      $D015
 LD021      $D021
 LD023      $D023
 LD033      $D033
 LD04B      $D04B
 LD085      $D085
 LD06B      $D06B
 LDEE6      $DEE6
 LD0AB      $D0AB
 LD07C      $D07C
 LD08E      $D08E
 LE0F2      $E0F2
 LD0AA      $D0AA
 LD095      $D095
 LE0FD      $E0FD
 LD0CB      $D0CB
 LDED8      $DED8
 LD0F4      $D0F4
 LD0DB      $D0DB
 LD0E5      $D0E5
 LD2F3      $D2F3
 LD0EA      $D0EA
 LE1E6      $E1E6
 LD104      $D104
 LD109      $D109
 LD119      $D119
 LC2BB      $C2BB
 LEF7A      $EF7A
 LD148      $D148
 LD140      $D140
 LE784      $E784
 LD6DF      $D6DF
 LD465      $D465
 LD6D9      $D6D9
 LEDA5      $EDA5
 LD193      $D193
 LD18D      $D18D
 LD805      $D805
 LD1D3      $D1D3
 LD247      $D247
 LD1AB      $D1AB
 LD1C7      $D1C7
 LCFD4      $CFD4
 LD1D9      $D1D9
 LD659      $D659
 LD1F8      $D1F8
 LD203      $D203
 LD209      $D209
 LD216      $D216
 LD21F      $D21F
 LD231      $D231
 LD233      $D233
 LD229      $D229
 LD24F      $D24F
 LD26C      $D26C
 LD268      $D268
 LD2E7      $D2E7
 LD285      $D285
 LD294      $D294
 LD2E8      $D2E8
 LD2BB      $D2BB
 LD2CD      $D2CD
 LD2F9      $D2F9
 LEF89      $EF89
 LD1D7      $D1D7
 LD339      $D339
 LD4D1      $D4D1
 LD34B      $D34B
 LD37C      $D37C
 LD36D      $D36D
 LD3B0      $D3B0
 LD365      $D365
 LD384      $D384
 LD3AF      $D3AF
 LD3A9      $D3A9
 LD3A3      $D3A3
 LD3C1      $D3C1
 LD445      $D445
 LD3D2      $D3D2
 LD3E3      $D3E3
 LD40C      $D40C
 LD3F9      $D3F9
 LD48B      $D48B
 LD408      $D408
 LD41A      $D41A
 LD40E      $D40E
 LD42A      $D42A
 LD43B      $D43B
 LD42B      $D42B
 LD455      $D455
 LD44B      $D44B
 LD45D      $D45D
 LD486      $D486
 LD469      $D469
 LD49A      $D49A
 LD4B0      $D4B0
 LD4A7      $D4A7
 LD490      $D490
 LD4CC      $D4CC
 LD4B5      $D4B5
 LD4C5      $D4C5
 LD4E3      $D4E3
 LD4D5      $D4D5
 LD507      $D507
 LE25B      $E25B
 LD567      $D567
 LD526      $D526
 LD521      $D521
 LD531      $D531
 LD55C      $D55C
 LD553      $D553
 LD552      $D552
 LEBD4      $EBD4
 LD556      $D556
 LD586      $D586
 LE800      $E800
 LD598      $D598
 LD5B2      $D5B2
 LD5B9      $D5B9
 LD6E6      $D6E6
 LDD7D      $DD7D
 LDE15      $DE15
 LEF98      $EF98
 LD60E      $D60E
 LD69B      $D69B
 LD6CB      $D6CB
 LD687      $D687
 LD689      $D689
 LD690      $D690
 LD6C3      $D6C3
 LF0B6      $F0B6
 LD6A3      $D6A3
 LD69E      $D69E
 LD661      $D661
 LD6F9      $D6F9
 LD713      $D713
 LD70B      $D70B
 LD715      $D715
 LD78A      $D78A
 LF3F7      $F3F7
 LD7F0      $D7F0
 LD72E      $D72E
 LD7B7      $D7B7
 LD73F      $D73F
 LD77C      $D77C
 LD7C5      $D7C5
 LD770      $D770
 LD74B      $D74B
 LD7A6      $D7A6
 LD78F      $D78F
 LD780      $D780
 LD7E1      $D7E1
 LD7D7      $D7D7
 LD7E2      $D7E2
 LD7CB      $D7CB
 LD7E6      $D7E6
 LD804      $D804
 LD7F5      $D7F5
 LD84F      $D84F
 LD86A      $D86A
 LD877      $D877
 LD860      $D860
 LD5E0      $D5E0
 LD887      $D887
 LD8A9      $D8A9
 LD8CA      $D8CA
 LD92A      $D92A
 LD953      $D953
 LD94C      $D94C
 LD936      $D936
 LDB8C      $DB8C
 LD922      $D922
 LD962      $D962
 LCC76      $CC76
 LD96B      $D96B
 LD977      $D977
 LD973      $D973
 LC3FC      $C3FC
 LD9AD      $D9AD
 LDB40      $DB40
 LD9E8      $D9E8
 LD9C8      $D9C8
 LD9DE      $D9DE
 LD9FD      $D9FD
 LDA77      $DA77
 LDA18      $DA18
 LDA10      $DA10
 LDB1A      $DB1A
 LDA2C      $DA2C
 LDA27      $DA27
 LDA9C      $DA9C
 LDB26      $DB26
 LDA81      $DA81
 LDA93      $DA93
 LDAA1      $DAA1
 LDAC7      $DAC7
 LDAFA      $DAFA
 LDB3D      $DB3D
 LDF79      $DF79
 LC283      $C283
 LDB53      $DB53
 LDB48      $DB48
 LDB60      $DB60
 LDB55      $DB55
 LCB2E      $CB2E
 LDFD0      $DFD0
 LDB79      $DB79
 LDBA4      $DBA4
 LDBBD      $DBBD
 LDBD5      $DBD5
 LDBC7      $DBC7
 LC2EA      $C2EA
 LC480      $C480
 LEB0B      $EB0B
 LDC0B      $DC0B
 LDC23      $DC23
 LDC08      $DC08
 LDC20      $DC20
 LC297      $C297
 LDC27      $DC27
 LDC36      $DC36
 LDC43      $DC43
 LDC5D      $DC5D
 LDC63      $DC63
 LDC60      $DC60
 LDC99      $DC99
 LDCDC      $DCDC
 LDF2C      $DF2C
 LE08C      $E08C
 LDC96      $DC96
 LDCAD      $DCAD
 LDCC3      $DCC3
 LDCBF      $DCBF
 LDD58      $DD58
 LDD60      $DD60
 LDD3D      $DD3D
 LD6E3      $D6E3
 LDDED      $DDED
 LDD9C      $DD9C
 LDDE0      $DDE0
 LDDB8      $DDB8
 LDFAE      $DFAE
 LE28E      $E28E
 LDDFA      $DDFA
 LDE09      $DE09
 LF014      $F014
 LD335      $D335
 LDE38      $DE38
 LDE51      $DE51
 LDFFC      $DFFC
 LE024      $E024
 LDEC8      $DEC8
 LDFA7      $DFA7
 LE41D      $E41D
 LDF54      $DF54
 LDDCF      $DDCF
 LDEDE      $DEDE
 LDF05      $DF05
 LDEF4      $DEF4
 LDEFD      $DEFD
 LE0D9      $E0D9
 LDF37      $DF37
 LDF66      $DF66
 LE240      $E240
 LDFBA      $DFBA
 LDFC6      $DFC6
 LDFB0      $DFB0
 LDFCD      $DFCD
 LE250      $E250
 LDFF4      $DFF4
 LE007      $E007
 LE017      $E017
 LE0A1      $E0A1
 LE046      $E046
 LE04D      $E04D
 LE056      $E056
 LE060      $E060
 LD63E      $D63E
 LE097      $E097
 LE087      $E087
 LE0A0      $E0A0
 LE00D      $E00D
 LE0B6      $E0B6
 LE0B2      $E0B2
 LE0C6      $E0C6
 LE0CA      $E0CA
 LE0D6      $E0D6
 LE0EB      $E0EB
 LE0FA      $E0FA
 LE108      $E108
 LE158      $E158
 LE11F      $E11F
 LE153      $E153
 LE131      $E131
 LE177      $E177
 LE43F      $E43F
 LE16F      $E16F
 LE165      $E165
 LE170      $E170
 LE2A9      $E2A9
 LE198      $E198
 LE1B6      $E1B6
 LE1A6      $E1A6
 LE1D1      $E1D1
 LE1D9      $E1D9
 LE1DE      $E1DE
 LE1E5      $E1E5
 LE214      $E214
 LE1B7      $E1B7
 LE203      $E203
 LE22E      $E22E
 LE211      $E211
 LE21D      $E21D
 LE1F7      $E1F7
 LE457      $E457
 LE1ED      $E1ED
 LE23F      $E23F
 LE299      $E299
 LE276      $E276
 LE288      $E288
 LE10B      $E10B
 LE278      $E278
 LE2B9      $E2B9
 LE2DF      $E2DF
 LE2ED      $E2ED
 LE2D8      $E2D8
 LE2E7      $E2E7
 LE303      $E303
 LE2FF      $E2FF
 LE2F2      $E2F2
 LE317      $E317
 LE33D      $E33D
 LE313      $E313
 LE32A      $E32A
 LE354      $E354
 LE363      $E363
 LE38E      $E38E
 LCEFD      $CEFD
 LE033      $E033
 LE3A0      $E3A0
 LE3B0      $E3B0
 LE3AD      $E3AD
 LE3C4      $E3C4
 LE3CC      $E3CC
 LE144      $E144
 LE273      $E273
 LE40B      $E40B
 LE3E5      $E3E5
 LDF47      $DF47
 LE3FD      $E3FD
 LE40E      $E40E
 LE3FA      $E3FA
 LD42C      $D42C
 LD1BF      $D1BF
 LE417      $E417
 LE424      $E424
 LE42C      $E42C
 LE43E      $E43E
 LE453      $E453
 LE456      $E456
 LD09A      $D09A
 LE490      $E490
 LE4A3      $E4A3
 LE4AD      $E4AD
 LE4CA      $E4CA
 LE4D8      $E4D8
 LE49E      $E49E
 LDF38      $DF38
 LE503      $E503
 LE50F      $E50F
 LE080      $E080
 LE534      $E534
 LE589      $E589
 LE553      $E553
 LE4F1      $E4F1
 LE57F      $E57F
 LDFE0      $DFE0
 LDF8B      $DF8B
 LE619      $E619
 LE60C      $E60C
 LE5DF      $E5DF
 LE6AA      $E6AA
 LCE4F      $CE4F
 LE6E6      $E6E6
 LE761      $E761
 LE763      $E763
 LE769      $E769
 LE780      $E780
 LE7D4      $E7D4
 LE7C4      $E7C4
 LE7BB      $E7BB
 LE7CA      $E7CA
 LC1CD      $C1CD
 LC1D8      $C1D8
 LE7E9      $E7E9
 LE7DE      $E7DE
 LE7F3      $E7F3
 LE7EA      $E7EA
 LE845      $E845
 LE7DA      $E7DA
 LE87C      $E87C
 LE8B4      $E8B4
 LE866      $E866
 LE861      $E861
 LE874      $E874
 LE878      $E878
 LE857      $E857
 LE88C      $E88C
 LE8A6      $E8A6
 LE893      $E893
 LE881      $E881
 LE8A2      $E8A2
 LE8AC      $E8AC
 LE8BD      $E8BD
 LE8BE      $E8BE
 LE8D9      $E8D9
 LE8F3      $E8F3
 LD5CA      $D5CA
 LE967      $E967
 LE979      $E979
 LE928      $E928
 LE945      $E945
 LE930      $E930
 LE95A      $E95A
 LE906      $E906
 LE976      $E976
 LE992      $E992
 LE991      $E991
 LE99F      $E99F
 LE99E      $E99E
 LE988      $E988
 LE99D      $E99D
 LE987      $E987
 LE981      $E981
 LE9BB      $E9BB
 LE9B2      $E9B2
 LE9C8      $E9C8
 LE9C3      $E9C3
 LE9E8      $E9E8
 LE9E6      $E9E6
 LE9AF      $E9AF
 LE9FE      $E9FE
 LEA2B      $EA2B
 LEA10      $EA10
 LEA0E      $EA0E
 LEA2E      $EA2E
 LF13D      $F13D
 LEA45      $EA45
 LEA6C      $EA6C
 LEA74      $EA74
 LCC55      $CC55
 LEAC4      $EAC4
 LEADC      $EADC
 LEACC      $EACC
 LC022      $C022
 LC230      $C230
 LEAEF      $EAEF
 LEAE4      $EAE4
 LEAFE      $EAFE
 LEB06      $EB06
 LEBC6      $EBC6
 LC7AF      $C7AF
 LEB90      $EB90
 LEB57      $EB57
 LEB7A      $EB7A
 LEBC8      $EBC8
 LEBDA      $EBDA
 LEBEB      $EBEB
 LED22      $ED22
 LEC46      $EC46
 LEC52      $EC52
 LED6A      $ED6A
 LEC38      $EC38
 LEC09      $EC09
 LEC20      $EC20
 LEC41      $EC41
 LEC71      $EC71
 LEC5B      $EC5B
 LEC86      $EC86
 LECB3      $ECB3
 LD459      $D459
 LC9A7      $C9A7
 LEE70      $EE70
 LECC2      $ECC2
 LEDFE      $EDFE
 LED44      $ED44
 LED4E      $ED4E
 LED32      $ED32
 LD185      $D185
 LED72      $ED72
 LEF10      $EF10
 LF08B      $F08B
 LED8F      $ED8F
 LD6DD      $D6DD
 LEE5C      $EE5C
 LEE3A      $EE3A
 LEDF2      $EDF2
 LEDF3      $EDF3
 LEE25      $EE25
 LEE39      $EE39
 LEE28      $EE28
 LEE7C      $EE7C
 LEE7A      $EE7A
 LEE6F      $EE6F
 LEE76      $EE76
 LEE8D      $EE8D
 LEEA9      $EEA9
 LEEC6      $EEC6
 LEEEA      $EEEA
 LEF0A      $EF0A
 LEF3B      $EF3B
 LEF29      $EF29
 LEF75      $EF75
 LEF5D      $EF5D
 LEF83      $EF83
 LEFDE      $EFDE
 LEFC5      $EFC5
 LEFCA      $EFCA
 LF000      $F000
 LF008      $F008
 LF005      $F005
 LF060      $F060
 LF036      $F036
 LF051      $F051
 LF04A      $F04A
 LF023      $F023
 LF088      $F088
 LEE40      $EE40
 LF08A      $F08A
 LF078      $F078
 LF0A1      $F0A1
 LF098      $F098
 LF096      $F096
 LF0B1      $F0B1
 LF0B9      $F0B9
 LF0ED      $F0ED
 LF150      $F150
 LF155      $F155
 LF159      $F159
 LC20D      $C20D
 LF174      $F174
 LF1CB      $F1CB
 LF19F      $F19F
 LF1BA      $F1BA
 LF1B5      $F1B5
 LF1C8      $F1C8
 LFA41      $FA41
 LF1ED      $F1ED
 LFA27      $FA27
 LF1F4      $F1F4
 LF1F7      $F1F7
 LF284      $F284
 LF224      $F224
 LF205      $F205
 LF286      $F286
 LF20A      $F20A
 LF23E      $F23E
 LF244      $F244
 LF26F      $F26F
 LF26C      $F26C
 LF2A6      $F2A6
 LFB7A      $FB7A
 LFA12      $FA12
 LF2A0      $F2A0
 LF560      $F560
 LF2AD      $F2AD
 LF2FD      $F2FD
 LF2C1      $F2C1
 LF388      $F388
 LF2DA      $F2DA
 LF314      $F314
 LF306      $F306
 LF311      $F311
 LF319      $F319
 LF2AA      $F2AA
 LF328      $F328
 LF374      $F374
 LF351      $F351
 LF36F      $F36F
 LF363      $F363
 LF330      $F330
 LF37E      $F37E
 LF3FC      $F3FC
 LF928      $F928
 LF80C      $F80C
 LF3F9      $F3F9
 LF403      $F403
 LF57D      $F57D
 LF513      $F513
 LF406      $F406
 LF41D      $F41D
 LF464      $F464
 LF435      $F435
 LF44C      $F44C
 LF4D9      $F4D9
 LF474      $F474
 LF490      $F490
 LF4B6      $F4B6
 LF4E9      $F4E9
 LF50B      $F50B
 LF60A      $F60A
 LF50E      $F50E
 LF519      $F519
 LF3BB      $F3BB
 LF545      $F545
 LF554      $F554
 LF542      $F542
 LF53F      $F53F
 LF574      $F574
 LF564      $F564
 LF562      $F562
 LF55B      $F55B
 LF584      $F584
 LF6BA      $F6BA
 LF592      $F592
 LF8CF      $F8CF
 LF59A      $F59A
 LF5BB      $F5BB
 LF5CA      $F5CA
 LF5C7      $F5C7
 LF5D9      $F5D9
 LF5D7      $F5D7
 LF5E6      $F5E6
 LF618      $F618
 LF60E      $F60E
 LF66C      $F66C
 LF649      $F649
 LF678      $F678
 LF6A1      $F6A1
 LF6AE      $F6AE
 LF6C1      $F6C1
 LF6F9      $F6F9
 LF6CF      $F6CF
 LF6F4      $F6F4
 LF6CC      $F6CC
 LF6E0      $F6E0
 LF6DE      $F6DE
 LF30E      $F30E
 LF764      $F764
 LF737      $F737
 LF743      $F743
 LF74D      $F74D
 LF76C      $F76C
 LFFA0      $FFA0
 LF794      $F794
 LF78D      $F78D
 LF763      $F763
 LF7D5      $F7D5
 LF797      $F797
 LF739      $F739
 LF77B      $F77B
 LF7CD      $F7CD
 LF7E5      $F7E5
 LF8AF      $F8AF
 LF91B      $F91B
 LF8FC      $F8FC
 LF93F      $F93F
 LF980      $F980
 LFA0D      $FA0D
 LF9EE      $F9EE
 LFA1E      $FA1E
 LFA36      $FA36
 LF19D      $F19D
 LFA51      $FA51
 LFA61      $FA61
 LFA71      $FA71
 LFA88      $FA88
 LFA7F      $FA7F
 LFAC5      $FAC5
 LFA93      $FA93
 LFA96      $FA96
 LFB00      $FB00
 LFAB5      $FAB5
 LFAA1      $FAA1
 LFABD      $FABD
 LFADC      $FADC
 LFAD3      $FAD3
 LFAED      $FAED
 LFAF4      $FAF4
 LFD87      $FD87
 LFB19      $FB19
 LFD79      $FD79
 LFB44      $FB44
 LFB2D      $FB2D
 LFB2B      $FB2B
 LFB0B      $FB0B
 LFD6F      $FD6F
 LFB48      $FB48
 LFB56      $FB56
 LFB4F      $FB4F
 LFB73      $FB73
 LFB66      $FB66
 LFB3A      $FB3A
 LFB99      $FB99
 LFBA8      $FBA8
 LFBB3      $FBB3
 LFD68      $FD68
 LFBBA      $FBBA
 LFB06      $FB06
 LFBFA      $FBFA
 LFBCC      $FBCC
 LFDA9      $FDA9
 LFC15      $FC15
 LFC28      $FC28
 LFC3A      $FC3A
 LFC55      $FC55
 LFC65      $FC65
 LFC78      $FC78
 LFC8B      $FC8B
 LFC9A      $FC9A
 LFCAA      $FCAA
 LFCBD      $FCBD
 LFCD8      $FCD8
 LFC4E      $FC4E
 LFCDF      $FCDF
 LFD00      $FD00
 LFD1B      $FD1B
 LFCFE      $FCFE
 LFD24      $FD24
 LFCED      $FCED
 LFD2C      $FD2C
 LFD29      $FD29
 LFD3D      $FD3D
 LFD3B      $FD3B
 LFCF5      $FCF5
 LFD5B      $FD5B
 LFD9B      $FD9B
 LFDDE      $FDDE
 LFDBE      $FDBE

